ARM GAS  /var/folders/cn/msls48b51jq2dpk8d4mt2d4w0000gn/T//cczoUJhV.s 			page 1


   1              		.cpu cortex-m7
   2              		.arch armv7e-m
   3              		.fpu fpv5-d16
   4              		.eabi_attribute 28, 1
   5              		.eabi_attribute 23, 1
   6              		.eabi_attribute 24, 1
   7              		.eabi_attribute 25, 1
   8              		.eabi_attribute 26, 1
   9              		.eabi_attribute 30, 2
  10              		.eabi_attribute 34, 1
  11              		.eabi_attribute 18, 4
  12              		.file	"my_pedal.cpp"
  13              		.section	.rodata.str1.4,"aMS",%progbits,1
  14              		.align	2
  15              	.LC0:
  16 0000 436F6E74 		.ascii	"Contrast\000"
  16      72617374 
  16      00
  17 0009 000000   		.align	2
  18              	.LC1:
  19 000c 42726967 		.ascii	"Brightness\000"
  19      68746E65 
  19      737300
  20              		.text
  21              	.Ltext0:
  22              		.cfi_sections	.debug_frame
  23              		.section	.text._ZN7daisysp6ChorusD2Ev,"axG",%progbits,_ZN7daisysp6ChorusD5Ev,comdat
  24              		.align	1
  25              		.p2align 2,,3
  26              		.weak	_ZN7daisysp6ChorusD2Ev
  27              		.syntax unified
  28              		.thumb
  29              		.thumb_func
  31              	_ZN7daisysp6ChorusD2Ev:
  32              	.LVL0:
  33              	.LFB4937:
  34              		.file 1 "../VCOM-G1/GuitarPedal/DaisySP/Source/Effects/chorus.h"
   1:../VCOM-G1/GuitarPedal/DaisySP/Source/Effects/chorus.h **** /*
   2:../VCOM-G1/GuitarPedal/DaisySP/Source/Effects/chorus.h **** Copyright (c) 2020 Electrosmith, Corp
   3:../VCOM-G1/GuitarPedal/DaisySP/Source/Effects/chorus.h **** 
   4:../VCOM-G1/GuitarPedal/DaisySP/Source/Effects/chorus.h **** Use of this source code is governed by an MIT-style
   5:../VCOM-G1/GuitarPedal/DaisySP/Source/Effects/chorus.h **** license that can be found in the LICENSE file or at
   6:../VCOM-G1/GuitarPedal/DaisySP/Source/Effects/chorus.h **** https://opensource.org/licenses/MIT.
   7:../VCOM-G1/GuitarPedal/DaisySP/Source/Effects/chorus.h **** */
   8:../VCOM-G1/GuitarPedal/DaisySP/Source/Effects/chorus.h **** 
   9:../VCOM-G1/GuitarPedal/DaisySP/Source/Effects/chorus.h **** #pragma once
  10:../VCOM-G1/GuitarPedal/DaisySP/Source/Effects/chorus.h **** #ifndef DSY_CHORUS_H
  11:../VCOM-G1/GuitarPedal/DaisySP/Source/Effects/chorus.h **** #define DSY_CHORUS_H
  12:../VCOM-G1/GuitarPedal/DaisySP/Source/Effects/chorus.h **** #ifdef __cplusplus
  13:../VCOM-G1/GuitarPedal/DaisySP/Source/Effects/chorus.h **** 
  14:../VCOM-G1/GuitarPedal/DaisySP/Source/Effects/chorus.h **** #include <stdint.h>
  15:../VCOM-G1/GuitarPedal/DaisySP/Source/Effects/chorus.h **** #include "Utility/delayline.h"
  16:../VCOM-G1/GuitarPedal/DaisySP/Source/Effects/chorus.h **** 
  17:../VCOM-G1/GuitarPedal/DaisySP/Source/Effects/chorus.h **** /** @file chorus.h */
  18:../VCOM-G1/GuitarPedal/DaisySP/Source/Effects/chorus.h **** 
  19:../VCOM-G1/GuitarPedal/DaisySP/Source/Effects/chorus.h **** namespace daisysp
  20:../VCOM-G1/GuitarPedal/DaisySP/Source/Effects/chorus.h **** {
ARM GAS  /var/folders/cn/msls48b51jq2dpk8d4mt2d4w0000gn/T//cczoUJhV.s 			page 2


  21:../VCOM-G1/GuitarPedal/DaisySP/Source/Effects/chorus.h **** /**  
  22:../VCOM-G1/GuitarPedal/DaisySP/Source/Effects/chorus.h ****     @brief Single Chorus engine. Used in Chorus.
  23:../VCOM-G1/GuitarPedal/DaisySP/Source/Effects/chorus.h ****     @author Ben Sergentanis
  24:../VCOM-G1/GuitarPedal/DaisySP/Source/Effects/chorus.h **** */
  25:../VCOM-G1/GuitarPedal/DaisySP/Source/Effects/chorus.h **** class ChorusEngine
  26:../VCOM-G1/GuitarPedal/DaisySP/Source/Effects/chorus.h **** {
  27:../VCOM-G1/GuitarPedal/DaisySP/Source/Effects/chorus.h ****   public:
  28:../VCOM-G1/GuitarPedal/DaisySP/Source/Effects/chorus.h ****     ChorusEngine() {}
  29:../VCOM-G1/GuitarPedal/DaisySP/Source/Effects/chorus.h ****     ~ChorusEngine() {}
  30:../VCOM-G1/GuitarPedal/DaisySP/Source/Effects/chorus.h **** 
  31:../VCOM-G1/GuitarPedal/DaisySP/Source/Effects/chorus.h ****     /** Initialize the module
  32:../VCOM-G1/GuitarPedal/DaisySP/Source/Effects/chorus.h ****         \param sample_rate Audio engine sample rate.
  33:../VCOM-G1/GuitarPedal/DaisySP/Source/Effects/chorus.h ****     */
  34:../VCOM-G1/GuitarPedal/DaisySP/Source/Effects/chorus.h ****     void Init(float sample_rate);
  35:../VCOM-G1/GuitarPedal/DaisySP/Source/Effects/chorus.h **** 
  36:../VCOM-G1/GuitarPedal/DaisySP/Source/Effects/chorus.h ****     /** Get the next sample
  37:../VCOM-G1/GuitarPedal/DaisySP/Source/Effects/chorus.h ****         \param in Sample to process
  38:../VCOM-G1/GuitarPedal/DaisySP/Source/Effects/chorus.h ****     */
  39:../VCOM-G1/GuitarPedal/DaisySP/Source/Effects/chorus.h ****     float Process(float in);
  40:../VCOM-G1/GuitarPedal/DaisySP/Source/Effects/chorus.h **** 
  41:../VCOM-G1/GuitarPedal/DaisySP/Source/Effects/chorus.h ****     /** How much to modulate the delay by.
  42:../VCOM-G1/GuitarPedal/DaisySP/Source/Effects/chorus.h ****         \param depth Works 0-1.
  43:../VCOM-G1/GuitarPedal/DaisySP/Source/Effects/chorus.h ****     */
  44:../VCOM-G1/GuitarPedal/DaisySP/Source/Effects/chorus.h ****     void SetLfoDepth(float depth);
  45:../VCOM-G1/GuitarPedal/DaisySP/Source/Effects/chorus.h **** 
  46:../VCOM-G1/GuitarPedal/DaisySP/Source/Effects/chorus.h ****     /** Set lfo frequency.
  47:../VCOM-G1/GuitarPedal/DaisySP/Source/Effects/chorus.h ****         \param freq Frequency in Hz
  48:../VCOM-G1/GuitarPedal/DaisySP/Source/Effects/chorus.h ****     */
  49:../VCOM-G1/GuitarPedal/DaisySP/Source/Effects/chorus.h ****     void SetLfoFreq(float freq);
  50:../VCOM-G1/GuitarPedal/DaisySP/Source/Effects/chorus.h **** 
  51:../VCOM-G1/GuitarPedal/DaisySP/Source/Effects/chorus.h ****     /** Set the internal delay rate. 
  52:../VCOM-G1/GuitarPedal/DaisySP/Source/Effects/chorus.h ****         \param delay Tuned for 0-1. Maps to .1 to 50 ms.
  53:../VCOM-G1/GuitarPedal/DaisySP/Source/Effects/chorus.h ****     */
  54:../VCOM-G1/GuitarPedal/DaisySP/Source/Effects/chorus.h ****     void SetDelay(float delay);
  55:../VCOM-G1/GuitarPedal/DaisySP/Source/Effects/chorus.h **** 
  56:../VCOM-G1/GuitarPedal/DaisySP/Source/Effects/chorus.h ****     /** Set the delay time in ms.
  57:../VCOM-G1/GuitarPedal/DaisySP/Source/Effects/chorus.h ****         \param ms Delay time in ms, 0 to 50 ms.
  58:../VCOM-G1/GuitarPedal/DaisySP/Source/Effects/chorus.h ****     */
  59:../VCOM-G1/GuitarPedal/DaisySP/Source/Effects/chorus.h ****     void SetDelayMs(float ms);
  60:../VCOM-G1/GuitarPedal/DaisySP/Source/Effects/chorus.h **** 
  61:../VCOM-G1/GuitarPedal/DaisySP/Source/Effects/chorus.h ****     /** Set the feedback amount.
  62:../VCOM-G1/GuitarPedal/DaisySP/Source/Effects/chorus.h ****         \param feedback Amount from 0-1.
  63:../VCOM-G1/GuitarPedal/DaisySP/Source/Effects/chorus.h ****     */
  64:../VCOM-G1/GuitarPedal/DaisySP/Source/Effects/chorus.h ****     void SetFeedback(float feedback);
  65:../VCOM-G1/GuitarPedal/DaisySP/Source/Effects/chorus.h **** 
  66:../VCOM-G1/GuitarPedal/DaisySP/Source/Effects/chorus.h ****   private:
  67:../VCOM-G1/GuitarPedal/DaisySP/Source/Effects/chorus.h ****     float                    sample_rate_;
  68:../VCOM-G1/GuitarPedal/DaisySP/Source/Effects/chorus.h ****     static constexpr int32_t kDelayLength
  69:../VCOM-G1/GuitarPedal/DaisySP/Source/Effects/chorus.h ****         = 2400; // 50 ms at 48kHz = .05 * 48000
  70:../VCOM-G1/GuitarPedal/DaisySP/Source/Effects/chorus.h **** 
  71:../VCOM-G1/GuitarPedal/DaisySP/Source/Effects/chorus.h ****     //triangle lfos
  72:../VCOM-G1/GuitarPedal/DaisySP/Source/Effects/chorus.h ****     float lfo_phase_;
  73:../VCOM-G1/GuitarPedal/DaisySP/Source/Effects/chorus.h ****     float lfo_freq_;
  74:../VCOM-G1/GuitarPedal/DaisySP/Source/Effects/chorus.h ****     float lfo_amp_;
  75:../VCOM-G1/GuitarPedal/DaisySP/Source/Effects/chorus.h **** 
  76:../VCOM-G1/GuitarPedal/DaisySP/Source/Effects/chorus.h ****     float feedback_;
  77:../VCOM-G1/GuitarPedal/DaisySP/Source/Effects/chorus.h **** 
ARM GAS  /var/folders/cn/msls48b51jq2dpk8d4mt2d4w0000gn/T//cczoUJhV.s 			page 3


  78:../VCOM-G1/GuitarPedal/DaisySP/Source/Effects/chorus.h ****     float delay_;
  79:../VCOM-G1/GuitarPedal/DaisySP/Source/Effects/chorus.h **** 
  80:../VCOM-G1/GuitarPedal/DaisySP/Source/Effects/chorus.h ****     DelayLine<float, kDelayLength> del_;
  81:../VCOM-G1/GuitarPedal/DaisySP/Source/Effects/chorus.h **** 
  82:../VCOM-G1/GuitarPedal/DaisySP/Source/Effects/chorus.h ****     float ProcessLfo();
  83:../VCOM-G1/GuitarPedal/DaisySP/Source/Effects/chorus.h **** };
  84:../VCOM-G1/GuitarPedal/DaisySP/Source/Effects/chorus.h **** 
  85:../VCOM-G1/GuitarPedal/DaisySP/Source/Effects/chorus.h **** //wraps up all of the chorus engines
  86:../VCOM-G1/GuitarPedal/DaisySP/Source/Effects/chorus.h **** /**  
  87:../VCOM-G1/GuitarPedal/DaisySP/Source/Effects/chorus.h ****     @brief Chorus Effect.
  88:../VCOM-G1/GuitarPedal/DaisySP/Source/Effects/chorus.h ****     @author Ben Sergentanis
  89:../VCOM-G1/GuitarPedal/DaisySP/Source/Effects/chorus.h ****     @date Jan 2021
  90:../VCOM-G1/GuitarPedal/DaisySP/Source/Effects/chorus.h ****     Based on https://www.izotope.com/en/learn/understanding-chorus-flangers-and-phasers-in-audio-pr
  91:../VCOM-G1/GuitarPedal/DaisySP/Source/Effects/chorus.h ****     and https://www.researchgate.net/publication/236629475_Implementing_Professional_Audio_Effects_
  92:../VCOM-G1/GuitarPedal/DaisySP/Source/Effects/chorus.h **** */
  93:../VCOM-G1/GuitarPedal/DaisySP/Source/Effects/chorus.h **** class Chorus
  94:../VCOM-G1/GuitarPedal/DaisySP/Source/Effects/chorus.h **** {
  95:../VCOM-G1/GuitarPedal/DaisySP/Source/Effects/chorus.h ****   public:
  96:../VCOM-G1/GuitarPedal/DaisySP/Source/Effects/chorus.h ****     Chorus() {}
  97:../VCOM-G1/GuitarPedal/DaisySP/Source/Effects/chorus.h ****     ~Chorus() {}
  35              		.loc 1 97 5 view -0
  36              		.cfi_startproc
  37              		@ args = 0, pretend = 0, frame = 0
  38              		@ frame_needed = 0, uses_anonymous_args = 0
  39              		@ link register save eliminated.
  40              		.loc 1 97 16 is_stmt 0 view .LVU1
  41 0000 7047     		bx	lr
  42              		.cfi_endproc
  43              	.LFE4937:
  45              		.weak	_ZN7daisysp6ChorusD1Ev
  46              		.thumb_set _ZN7daisysp6ChorusD1Ev,_ZN7daisysp6ChorusD2Ev
  47 0002 00BF     		.section	.text._ZN7daisysp6PhaserD2Ev,"axG",%progbits,_ZN7daisysp6PhaserD5Ev,comdat
  48              		.align	1
  49              		.p2align 2,,3
  50              		.weak	_ZN7daisysp6PhaserD2Ev
  51              		.syntax unified
  52              		.thumb
  53              		.thumb_func
  55              	_ZN7daisysp6PhaserD2Ev:
  56              	.LVL1:
  57              	.LFB4983:
  58              		.file 2 "../VCOM-G1/GuitarPedal/DaisySP/Source/Effects/phaser.h"
   1:../VCOM-G1/GuitarPedal/DaisySP/Source/Effects/phaser.h **** /*
   2:../VCOM-G1/GuitarPedal/DaisySP/Source/Effects/phaser.h **** Copyright (c) 2020 Electrosmith, Corp
   3:../VCOM-G1/GuitarPedal/DaisySP/Source/Effects/phaser.h **** 
   4:../VCOM-G1/GuitarPedal/DaisySP/Source/Effects/phaser.h **** Use of this source code is governed by an MIT-style
   5:../VCOM-G1/GuitarPedal/DaisySP/Source/Effects/phaser.h **** license that can be found in the LICENSE file or at
   6:../VCOM-G1/GuitarPedal/DaisySP/Source/Effects/phaser.h **** https://opensource.org/licenses/MIT.
   7:../VCOM-G1/GuitarPedal/DaisySP/Source/Effects/phaser.h **** */
   8:../VCOM-G1/GuitarPedal/DaisySP/Source/Effects/phaser.h **** 
   9:../VCOM-G1/GuitarPedal/DaisySP/Source/Effects/phaser.h **** #pragma once
  10:../VCOM-G1/GuitarPedal/DaisySP/Source/Effects/phaser.h **** #ifndef DSY_PHASER_H
  11:../VCOM-G1/GuitarPedal/DaisySP/Source/Effects/phaser.h **** #define DSY_PHASER_H
  12:../VCOM-G1/GuitarPedal/DaisySP/Source/Effects/phaser.h **** #ifdef __cplusplus
  13:../VCOM-G1/GuitarPedal/DaisySP/Source/Effects/phaser.h **** 
  14:../VCOM-G1/GuitarPedal/DaisySP/Source/Effects/phaser.h **** #include <stdint.h>
  15:../VCOM-G1/GuitarPedal/DaisySP/Source/Effects/phaser.h **** #include "Utility/delayline.h"
ARM GAS  /var/folders/cn/msls48b51jq2dpk8d4mt2d4w0000gn/T//cczoUJhV.s 			page 4


  16:../VCOM-G1/GuitarPedal/DaisySP/Source/Effects/phaser.h **** 
  17:../VCOM-G1/GuitarPedal/DaisySP/Source/Effects/phaser.h **** /** @file phaser.h */
  18:../VCOM-G1/GuitarPedal/DaisySP/Source/Effects/phaser.h **** 
  19:../VCOM-G1/GuitarPedal/DaisySP/Source/Effects/phaser.h **** namespace daisysp
  20:../VCOM-G1/GuitarPedal/DaisySP/Source/Effects/phaser.h **** {
  21:../VCOM-G1/GuitarPedal/DaisySP/Source/Effects/phaser.h **** /**  
  22:../VCOM-G1/GuitarPedal/DaisySP/Source/Effects/phaser.h ****     @brief Single Phaser engine. Used in Phaser.
  23:../VCOM-G1/GuitarPedal/DaisySP/Source/Effects/phaser.h ****     @author Ben Sergentanis
  24:../VCOM-G1/GuitarPedal/DaisySP/Source/Effects/phaser.h **** */
  25:../VCOM-G1/GuitarPedal/DaisySP/Source/Effects/phaser.h **** class PhaserEngine
  26:../VCOM-G1/GuitarPedal/DaisySP/Source/Effects/phaser.h **** {
  27:../VCOM-G1/GuitarPedal/DaisySP/Source/Effects/phaser.h ****   public:
  28:../VCOM-G1/GuitarPedal/DaisySP/Source/Effects/phaser.h ****     PhaserEngine() {}
  29:../VCOM-G1/GuitarPedal/DaisySP/Source/Effects/phaser.h ****     ~PhaserEngine() {}
  30:../VCOM-G1/GuitarPedal/DaisySP/Source/Effects/phaser.h **** 
  31:../VCOM-G1/GuitarPedal/DaisySP/Source/Effects/phaser.h ****     /** Initialize the module
  32:../VCOM-G1/GuitarPedal/DaisySP/Source/Effects/phaser.h ****         \param sample_rate Audio engine sample rate.
  33:../VCOM-G1/GuitarPedal/DaisySP/Source/Effects/phaser.h ****     */
  34:../VCOM-G1/GuitarPedal/DaisySP/Source/Effects/phaser.h ****     void Init(float sample_rate);
  35:../VCOM-G1/GuitarPedal/DaisySP/Source/Effects/phaser.h **** 
  36:../VCOM-G1/GuitarPedal/DaisySP/Source/Effects/phaser.h ****     /** Get the next sample
  37:../VCOM-G1/GuitarPedal/DaisySP/Source/Effects/phaser.h ****         \param in Sample to process
  38:../VCOM-G1/GuitarPedal/DaisySP/Source/Effects/phaser.h ****     */
  39:../VCOM-G1/GuitarPedal/DaisySP/Source/Effects/phaser.h ****     float Process(float in);
  40:../VCOM-G1/GuitarPedal/DaisySP/Source/Effects/phaser.h **** 
  41:../VCOM-G1/GuitarPedal/DaisySP/Source/Effects/phaser.h ****     /** How much to modulate the allpass filter by.
  42:../VCOM-G1/GuitarPedal/DaisySP/Source/Effects/phaser.h ****         \param depth Works 0-1.
  43:../VCOM-G1/GuitarPedal/DaisySP/Source/Effects/phaser.h ****     */
  44:../VCOM-G1/GuitarPedal/DaisySP/Source/Effects/phaser.h ****     void SetLfoDepth(float depth);
  45:../VCOM-G1/GuitarPedal/DaisySP/Source/Effects/phaser.h **** 
  46:../VCOM-G1/GuitarPedal/DaisySP/Source/Effects/phaser.h ****     /** Set lfo frequency.
  47:../VCOM-G1/GuitarPedal/DaisySP/Source/Effects/phaser.h ****         \param lfo_freq Frequency in Hz
  48:../VCOM-G1/GuitarPedal/DaisySP/Source/Effects/phaser.h ****     */
  49:../VCOM-G1/GuitarPedal/DaisySP/Source/Effects/phaser.h ****     void SetLfoFreq(float lfo_freq);
  50:../VCOM-G1/GuitarPedal/DaisySP/Source/Effects/phaser.h **** 
  51:../VCOM-G1/GuitarPedal/DaisySP/Source/Effects/phaser.h ****     /** Set the allpass frequency
  52:../VCOM-G1/GuitarPedal/DaisySP/Source/Effects/phaser.h ****         \param ap_freq Frequency in Hz.
  53:../VCOM-G1/GuitarPedal/DaisySP/Source/Effects/phaser.h ****     */
  54:../VCOM-G1/GuitarPedal/DaisySP/Source/Effects/phaser.h ****     void SetFreq(float ap_freq);
  55:../VCOM-G1/GuitarPedal/DaisySP/Source/Effects/phaser.h **** 
  56:../VCOM-G1/GuitarPedal/DaisySP/Source/Effects/phaser.h ****     /** Set the feedback amount.
  57:../VCOM-G1/GuitarPedal/DaisySP/Source/Effects/phaser.h ****         \param feedback Amount from 0-1.
  58:../VCOM-G1/GuitarPedal/DaisySP/Source/Effects/phaser.h ****     */
  59:../VCOM-G1/GuitarPedal/DaisySP/Source/Effects/phaser.h ****     void SetFeedback(float feedback);
  60:../VCOM-G1/GuitarPedal/DaisySP/Source/Effects/phaser.h **** 
  61:../VCOM-G1/GuitarPedal/DaisySP/Source/Effects/phaser.h ****   private:
  62:../VCOM-G1/GuitarPedal/DaisySP/Source/Effects/phaser.h ****     float                    sample_rate_;
  63:../VCOM-G1/GuitarPedal/DaisySP/Source/Effects/phaser.h ****     static constexpr int32_t kDelayLength
  64:../VCOM-G1/GuitarPedal/DaisySP/Source/Effects/phaser.h ****         = 2400; // 50 ms at 48kHz = .05 * 48000
  65:../VCOM-G1/GuitarPedal/DaisySP/Source/Effects/phaser.h **** 
  66:../VCOM-G1/GuitarPedal/DaisySP/Source/Effects/phaser.h ****     //triangle lfo
  67:../VCOM-G1/GuitarPedal/DaisySP/Source/Effects/phaser.h ****     float lfo_phase_;
  68:../VCOM-G1/GuitarPedal/DaisySP/Source/Effects/phaser.h ****     float lfo_freq_;
  69:../VCOM-G1/GuitarPedal/DaisySP/Source/Effects/phaser.h ****     float lfo_amp_;
  70:../VCOM-G1/GuitarPedal/DaisySP/Source/Effects/phaser.h **** 
  71:../VCOM-G1/GuitarPedal/DaisySP/Source/Effects/phaser.h ****     float os_;
  72:../VCOM-G1/GuitarPedal/DaisySP/Source/Effects/phaser.h **** 
ARM GAS  /var/folders/cn/msls48b51jq2dpk8d4mt2d4w0000gn/T//cczoUJhV.s 			page 5


  73:../VCOM-G1/GuitarPedal/DaisySP/Source/Effects/phaser.h ****     float feedback_;
  74:../VCOM-G1/GuitarPedal/DaisySP/Source/Effects/phaser.h ****     float ap_freq_;
  75:../VCOM-G1/GuitarPedal/DaisySP/Source/Effects/phaser.h **** 
  76:../VCOM-G1/GuitarPedal/DaisySP/Source/Effects/phaser.h ****     float deltime_;
  77:../VCOM-G1/GuitarPedal/DaisySP/Source/Effects/phaser.h ****     float last_sample_;
  78:../VCOM-G1/GuitarPedal/DaisySP/Source/Effects/phaser.h **** 
  79:../VCOM-G1/GuitarPedal/DaisySP/Source/Effects/phaser.h ****     DelayLine<float, kDelayLength> del_;
  80:../VCOM-G1/GuitarPedal/DaisySP/Source/Effects/phaser.h **** 
  81:../VCOM-G1/GuitarPedal/DaisySP/Source/Effects/phaser.h ****     float ProcessLfo();
  82:../VCOM-G1/GuitarPedal/DaisySP/Source/Effects/phaser.h **** };
  83:../VCOM-G1/GuitarPedal/DaisySP/Source/Effects/phaser.h **** 
  84:../VCOM-G1/GuitarPedal/DaisySP/Source/Effects/phaser.h **** //wraps up all of the phaser engines
  85:../VCOM-G1/GuitarPedal/DaisySP/Source/Effects/phaser.h **** /**  
  86:../VCOM-G1/GuitarPedal/DaisySP/Source/Effects/phaser.h ****     @brief Phaser Effect.
  87:../VCOM-G1/GuitarPedal/DaisySP/Source/Effects/phaser.h ****     @author Ben Sergentanis
  88:../VCOM-G1/GuitarPedal/DaisySP/Source/Effects/phaser.h ****     @date Jan 2021
  89:../VCOM-G1/GuitarPedal/DaisySP/Source/Effects/phaser.h **** */
  90:../VCOM-G1/GuitarPedal/DaisySP/Source/Effects/phaser.h **** class Phaser
  91:../VCOM-G1/GuitarPedal/DaisySP/Source/Effects/phaser.h **** {
  92:../VCOM-G1/GuitarPedal/DaisySP/Source/Effects/phaser.h ****   public:
  93:../VCOM-G1/GuitarPedal/DaisySP/Source/Effects/phaser.h ****     Phaser() {}
  94:../VCOM-G1/GuitarPedal/DaisySP/Source/Effects/phaser.h ****     ~Phaser() {}
  59              		.loc 2 94 5 is_stmt 1 view -0
  60              		.cfi_startproc
  61              		@ args = 0, pretend = 0, frame = 0
  62              		@ frame_needed = 0, uses_anonymous_args = 0
  63              		@ link register save eliminated.
  64              		.loc 2 94 16 is_stmt 0 view .LVU3
  65 0000 7047     		bx	lr
  66              		.cfi_endproc
  67              	.LFE4983:
  69              		.weak	_ZN7daisysp6PhaserD1Ev
  70              		.thumb_set _ZN7daisysp6PhaserD1Ev,_ZN7daisysp6PhaserD2Ev
  71 0002 00BF     		.section	.text._ZN7daisysp7TremoloD2Ev,"axG",%progbits,_ZN7daisysp7TremoloD5Ev,comdat
  72              		.align	1
  73              		.p2align 2,,3
  74              		.weak	_ZN7daisysp7TremoloD2Ev
  75              		.syntax unified
  76              		.thumb
  77              		.thumb_func
  79              	_ZN7daisysp7TremoloD2Ev:
  80              	.LVL2:
  81              	.LFB4995:
  82              		.file 3 "../VCOM-G1/GuitarPedal/DaisySP/Source/Effects/tremolo.h"
   1:../VCOM-G1/GuitarPedal/DaisySP/Source/Effects/tremolo.h **** /*
   2:../VCOM-G1/GuitarPedal/DaisySP/Source/Effects/tremolo.h **** Copyright (c) 2020 Electrosmith, Corp
   3:../VCOM-G1/GuitarPedal/DaisySP/Source/Effects/tremolo.h **** 
   4:../VCOM-G1/GuitarPedal/DaisySP/Source/Effects/tremolo.h **** Use of this source code is governed by an MIT-style
   5:../VCOM-G1/GuitarPedal/DaisySP/Source/Effects/tremolo.h **** license that can be found in the LICENSE file or at
   6:../VCOM-G1/GuitarPedal/DaisySP/Source/Effects/tremolo.h **** https://opensource.org/licenses/MIT.
   7:../VCOM-G1/GuitarPedal/DaisySP/Source/Effects/tremolo.h **** */
   8:../VCOM-G1/GuitarPedal/DaisySP/Source/Effects/tremolo.h **** 
   9:../VCOM-G1/GuitarPedal/DaisySP/Source/Effects/tremolo.h **** #pragma once
  10:../VCOM-G1/GuitarPedal/DaisySP/Source/Effects/tremolo.h **** #ifndef DSY_TREMOLO_H
  11:../VCOM-G1/GuitarPedal/DaisySP/Source/Effects/tremolo.h **** #define DSY_TREMOLO_H
  12:../VCOM-G1/GuitarPedal/DaisySP/Source/Effects/tremolo.h **** 
  13:../VCOM-G1/GuitarPedal/DaisySP/Source/Effects/tremolo.h **** #include <stdint.h>
ARM GAS  /var/folders/cn/msls48b51jq2dpk8d4mt2d4w0000gn/T//cczoUJhV.s 			page 6


  14:../VCOM-G1/GuitarPedal/DaisySP/Source/Effects/tremolo.h **** #ifdef __cplusplus
  15:../VCOM-G1/GuitarPedal/DaisySP/Source/Effects/tremolo.h **** 
  16:../VCOM-G1/GuitarPedal/DaisySP/Source/Effects/tremolo.h **** #include <math.h>
  17:../VCOM-G1/GuitarPedal/DaisySP/Source/Effects/tremolo.h **** #include "Synthesis/oscillator.h"
  18:../VCOM-G1/GuitarPedal/DaisySP/Source/Effects/tremolo.h **** 
  19:../VCOM-G1/GuitarPedal/DaisySP/Source/Effects/tremolo.h **** /** @file tremolo.h */
  20:../VCOM-G1/GuitarPedal/DaisySP/Source/Effects/tremolo.h **** 
  21:../VCOM-G1/GuitarPedal/DaisySP/Source/Effects/tremolo.h **** namespace daisysp
  22:../VCOM-G1/GuitarPedal/DaisySP/Source/Effects/tremolo.h **** {
  23:../VCOM-G1/GuitarPedal/DaisySP/Source/Effects/tremolo.h **** /**  
  24:../VCOM-G1/GuitarPedal/DaisySP/Source/Effects/tremolo.h ****     @brief Tremolo effect.
  25:../VCOM-G1/GuitarPedal/DaisySP/Source/Effects/tremolo.h ****     @author Ben Sergentanis
  26:../VCOM-G1/GuitarPedal/DaisySP/Source/Effects/tremolo.h ****     @date Jan 2021
  27:../VCOM-G1/GuitarPedal/DaisySP/Source/Effects/tremolo.h ****     Based on https://christianfloisand.wordpress.com/2012/04/18/coding-some-tremolo/ \n
  28:../VCOM-G1/GuitarPedal/DaisySP/Source/Effects/tremolo.h **** */
  29:../VCOM-G1/GuitarPedal/DaisySP/Source/Effects/tremolo.h **** class Tremolo
  30:../VCOM-G1/GuitarPedal/DaisySP/Source/Effects/tremolo.h **** {
  31:../VCOM-G1/GuitarPedal/DaisySP/Source/Effects/tremolo.h ****   public:
  32:../VCOM-G1/GuitarPedal/DaisySP/Source/Effects/tremolo.h ****     Tremolo() {}
  33:../VCOM-G1/GuitarPedal/DaisySP/Source/Effects/tremolo.h ****     ~Tremolo() {}
  83              		.loc 3 33 5 is_stmt 1 view -0
  84              		.cfi_startproc
  85              		@ args = 0, pretend = 0, frame = 0
  86              		@ frame_needed = 0, uses_anonymous_args = 0
  87              		@ link register save eliminated.
  88              	.LBB709:
  89              	.LBI709:
  90              		.file 4 "../VCOM-G1/GuitarPedal/DaisySP/Source/Synthesis/oscillator.h"
   1:../VCOM-G1/GuitarPedal/DaisySP/Source/Synthesis/oscillator.h **** /*
   2:../VCOM-G1/GuitarPedal/DaisySP/Source/Synthesis/oscillator.h **** Copyright (c) 2020 Electrosmith, Corp
   3:../VCOM-G1/GuitarPedal/DaisySP/Source/Synthesis/oscillator.h **** 
   4:../VCOM-G1/GuitarPedal/DaisySP/Source/Synthesis/oscillator.h **** Use of this source code is governed by an MIT-style
   5:../VCOM-G1/GuitarPedal/DaisySP/Source/Synthesis/oscillator.h **** license that can be found in the LICENSE file or at
   6:../VCOM-G1/GuitarPedal/DaisySP/Source/Synthesis/oscillator.h **** https://opensource.org/licenses/MIT.
   7:../VCOM-G1/GuitarPedal/DaisySP/Source/Synthesis/oscillator.h **** */
   8:../VCOM-G1/GuitarPedal/DaisySP/Source/Synthesis/oscillator.h **** 
   9:../VCOM-G1/GuitarPedal/DaisySP/Source/Synthesis/oscillator.h **** #pragma once
  10:../VCOM-G1/GuitarPedal/DaisySP/Source/Synthesis/oscillator.h **** #ifndef DSY_OSCILLATOR_H
  11:../VCOM-G1/GuitarPedal/DaisySP/Source/Synthesis/oscillator.h **** #define DSY_OSCILLATOR_H
  12:../VCOM-G1/GuitarPedal/DaisySP/Source/Synthesis/oscillator.h **** #include <stdint.h>
  13:../VCOM-G1/GuitarPedal/DaisySP/Source/Synthesis/oscillator.h **** #include "Utility/dsp.h"
  14:../VCOM-G1/GuitarPedal/DaisySP/Source/Synthesis/oscillator.h **** #ifdef __cplusplus
  15:../VCOM-G1/GuitarPedal/DaisySP/Source/Synthesis/oscillator.h **** 
  16:../VCOM-G1/GuitarPedal/DaisySP/Source/Synthesis/oscillator.h **** namespace daisysp
  17:../VCOM-G1/GuitarPedal/DaisySP/Source/Synthesis/oscillator.h **** {
  18:../VCOM-G1/GuitarPedal/DaisySP/Source/Synthesis/oscillator.h **** /** Synthesis of several waveforms, including polyBLEP bandlimited waveforms.
  19:../VCOM-G1/GuitarPedal/DaisySP/Source/Synthesis/oscillator.h **** */
  20:../VCOM-G1/GuitarPedal/DaisySP/Source/Synthesis/oscillator.h **** class Oscillator
  21:../VCOM-G1/GuitarPedal/DaisySP/Source/Synthesis/oscillator.h **** {
  22:../VCOM-G1/GuitarPedal/DaisySP/Source/Synthesis/oscillator.h ****   public:
  23:../VCOM-G1/GuitarPedal/DaisySP/Source/Synthesis/oscillator.h ****     Oscillator() {}
  24:../VCOM-G1/GuitarPedal/DaisySP/Source/Synthesis/oscillator.h ****     ~Oscillator() {}
  91              		.loc 4 24 5 view .LVU5
  92              		.loc 4 24 5 is_stmt 0 view .LVU6
  93              	.LBE709:
  94              		.loc 3 33 17 view .LVU7
  95 0000 7047     		bx	lr
ARM GAS  /var/folders/cn/msls48b51jq2dpk8d4mt2d4w0000gn/T//cczoUJhV.s 			page 7


  96              		.cfi_endproc
  97              	.LFE4995:
  99              		.weak	_ZN7daisysp7TremoloD1Ev
 100              		.thumb_set _ZN7daisysp7TremoloD1Ev,_ZN7daisysp7TremoloD2Ev
 101 0002 00BF     		.section	.text._ZL14recomputeTempov,"ax",%progbits
 102              		.align	1
 103              		.p2align 2,,3
 104              		.syntax unified
 105              		.thumb
 106              		.thumb_func
 108              	_ZL14recomputeTempov:
 109              	.LFB14394:
 110              		.file 5 "my_pedal.cpp"
   1:my_pedal.cpp  **** // MultiSong Pedal ŌĆö ą┐čĆąĖą╗ąŠąČąĄąĮąĖąĄ ą┐ąŠą▓ąĄčĆčģ ąČąĄą╗ąĄąĘą░ 125b (GuitarPedal125B).
   2:my_pedal.cpp  **** // ą¤čĆąĄčüąĄčé = čéąŠąĮ ą┐ąŠą┤ čéčĆąĄą║: ąĮąĄą╣čĆąŠą╝ąŠą┤ąĄą╗čī čāčüąĖą╗ąĖčéąĄą╗čÅ + IR-ą║ą░ą▒ąĖąĮ
   3:my_pedal.cpp  **** //
   4:my_pedal.cpp  **** // ąĀąĄąČąĖą╝čŗ (ąĮą░ąČą░čéąĖąĄ čŹąĮą║ąŠą┤ąĄčĆą░ ąŠčéą║čĆčŗą▓ą░ąĄčé ą£ąĢąØą«):
   5:my_pedal.cpp  **** //   PLAY   ŌĆö ąŠčüąĮąŠą▓ąĮąŠą╣: čŹąĮą║ąŠą┤ąĄčĆ ą╗ąĖčüčéą░ąĄčé ą┐ąĄčüąĮąĖ; čäčāčéčüą▓ąĖčéčćąĖ +/-/
   6:my_pedal.cpp  **** //   MENU   ŌĆö čüą┐ąĖčüąŠą║: Tuner / Edit FX / Save / Exit. ąŁąĮą║ąŠą┤ąĄčĆ: ą▓čĆą░čēą░čéčī=ą▓čŗą▒ą
   7:my_pedal.cpp  **** //   TUNER  ŌĆö čéčÄąĮąĄčĆ: ą░ą▓čéąŠą║ąŠčĆčĆąĄą╗čÅčåąĖčÅ ą▓čģąŠą┤ą░ -> ąĮąŠčéą░ + čłą║ą░ą╗ą░ čåąĄąĮ
   8:my_pedal.cpp  **** //   EDIT   ŌĆö ą┐čĆą░ą▓ą║ą░ čŹčäčäąĄą║čéąŠą▓: Gain/Tone/Reverb/Delay/Tremolo. ąÆčĆą░čēą░čéčī=ą▓čŗą
   9:my_pedal.cpp  **** //
  10:my_pedal.cpp  **** // ą”ąĄą┐ąŠčćą║ą░: ą▓čģąŠą┤ -> [čĆąĄą╗ąĄ] -> Gain -> ąĮąĄą╣čĆąŠą╝ąŠą┤ąĄą╗čī -> Tone -> IR -> NoiseG
  11:my_pedal.cpp  **** //          Tremolo -> Delay -> Reverb -> ą▓čŗčģąŠą┤.
  12:my_pedal.cpp  **** 
  13:my_pedal.cpp  **** #include <cstdio>
  14:my_pedal.cpp  **** #include <cmath>
  15:my_pedal.cpp  **** #include <cstring>
  16:my_pedal.cpp  **** #include "daisy_seed.h"
  17:my_pedal.cpp  **** #include "guitar_pedal_125b.h"
  18:my_pedal.cpp  **** #include "amp_module.h"
  19:my_pedal.cpp  **** #include "song_library.h"
  20:my_pedal.cpp  **** 
  21:my_pedal.cpp  **** using namespace daisy;
  22:my_pedal.cpp  **** using namespace daisysp;
  23:my_pedal.cpp  **** using namespace bkshepherd;
  24:my_pedal.cpp  **** 
  25:my_pedal.cpp  **** GuitarPedal125B hardware;
  26:my_pedal.cpp  **** AmpModule amp;
  27:my_pedal.cpp  **** 
  28:my_pedal.cpp  **** // ąĀąĄą▓ąĖąĘąĖčÅ ą┐čĆąŠčłąĖą▓ą║ąĖ ŌĆö ą┐ąŠą║ą░ąĘčŗą▓ą░ąĄčéčüčÅ ą╝ąĄą╗ą║ąĖą╝ čłčĆąĖčäčéąŠą╝ ą┐ąŠą┤ 
  29:my_pedal.cpp  **** static const char *FW_REVISION = "rev 2.0";
  30:my_pedal.cpp  **** 
  31:my_pedal.cpp  **** // ąŁčäčäąĄą║čéčŗ ą┐ąŠčüą╗ąĄ čāčüąĖą╗ąĖčéąĄą╗čÅ.
  32:my_pedal.cpp  **** // delay-ą▒čāčäąĄčĆ ą▓čŗąĮąĄčüąĄąĮ ą▓ SDRAM (ą║ą░ą║ ą╗čāą┐ąĄčĆ) -> DTCM čüą▓ąŠą▒ąŠą┤ąĄąĮ ą┐ąŠą┤ čüč
  33:my_pedal.cpp  **** static const float DELAY_MAX_MS = 900.0f;
  34:my_pedal.cpp  **** struct SimpleReverb
  35:my_pedal.cpp  **** {
  36:my_pedal.cpp  ****     static const int C1 = 1557, C2 = 1617, C3 = 1491, C4 = 1422, A1 = 225, A2 = 556;
  37:my_pedal.cpp  ****     float c1[C1], c2[C2], c3[C3], c4[C4], a1[A1], a2[A2];
  38:my_pedal.cpp  ****     int i1, i2, i3, i4, ja1, ja2;
  39:my_pedal.cpp  ****     float fb, lp, damp;
  40:my_pedal.cpp  ****     void Init()
  41:my_pedal.cpp  ****     {
  42:my_pedal.cpp  ****         memset(c1, 0, sizeof(c1)); memset(c2, 0, sizeof(c2)); memset(c3, 0, sizeof(c3));
  43:my_pedal.cpp  ****         memset(c4, 0, sizeof(c4)); memset(a1, 0, sizeof(a1)); memset(a2, 0, sizeof(a2));
  44:my_pedal.cpp  ****         i1 = i2 = i3 = i4 = ja1 = ja2 = 0;
ARM GAS  /var/folders/cn/msls48b51jq2dpk8d4mt2d4w0000gn/T//cczoUJhV.s 			page 8


  45:my_pedal.cpp  ****         fb = 0.84f; lp = 0.0f; damp = 0.35f;
  46:my_pedal.cpp  ****     }
  47:my_pedal.cpp  ****     static inline float comb(float *b, int n, int &i, float x, float fb)
  48:my_pedal.cpp  ****     {
  49:my_pedal.cpp  ****         float y = b[i]; b[i] = x + y * fb; if (++i >= n) i = 0; return y;
  50:my_pedal.cpp  ****     }
  51:my_pedal.cpp  ****     static inline float allpass(float *b, int n, int &i, float x, float g)
  52:my_pedal.cpp  ****     {
  53:my_pedal.cpp  ****         float bo = b[i]; float y = -x + bo; b[i] = x + bo * g; if (++i >= n) i = 0; return y;
  54:my_pedal.cpp  ****     }
  55:my_pedal.cpp  ****     float Process(float x)
  56:my_pedal.cpp  ****     {
  57:my_pedal.cpp  ****         float y = comb(c1, C1, i1, x, fb) + comb(c2, C2, i2, x, fb) + comb(c3, C3, i3, x, fb) + com
  58:my_pedal.cpp  ****         y *= 0.25f;
  59:my_pedal.cpp  ****         y = allpass(a1, A1, ja1, y, 0.5f);
  60:my_pedal.cpp  ****         y = allpass(a2, A2, ja2, y, 0.5f);
  61:my_pedal.cpp  ****         lp += damp * (y - lp);
  62:my_pedal.cpp  ****         return lp;
  63:my_pedal.cpp  ****     }
  64:my_pedal.cpp  **** };
  65:my_pedal.cpp  **** static SimpleReverb reverb;
  66:my_pedal.cpp  **** 
  67:my_pedal.cpp  **** // 3-ą┐ąŠą╗ąŠčüąĮčŗą╣ čŹą║ą▓ą░ą╗ą░ą╣ąĘąĄčĆ (Low/Mid/High) ŌĆö čĆą░ąĘą┤ąĄą╗ąĄąĮąĖąĄ ą┤ą▓čāą╝čÅ ąŠą┤ą
  68:my_pedal.cpp  **** // ą¤čĆąĖ čāčüąĖą╗ąĄąĮąĖčÅčģ (1,1,1) čüčāą╝ą╝ą░ čéąĄą╗ąĄčüą║ąŠą┐ąĖčćąĄčüą║ąĖ = ą▓čģąŠą┤ (ą┐čĆąŠąĘčĆ
  69:my_pedal.cpp  **** struct EQ3
  70:my_pedal.cpp  **** {
  71:my_pedal.cpp  ****     float lp1, lp2, a1, a2, sr;
  72:my_pedal.cpp  ****     void Init(float s) { sr = s; lp1 = lp2 = 0.0f; SetFreqs(250.0f, 2500.0f); }
  73:my_pedal.cpp  ****     void SetFreqs(float f1, float f2)
  74:my_pedal.cpp  ****     {
  75:my_pedal.cpp  ****         a1 = 1.0f - expf(-2.0f * 3.14159265358979f * f1 / sr);
  76:my_pedal.cpp  ****         a2 = 1.0f - expf(-2.0f * 3.14159265358979f * f2 / sr);
  77:my_pedal.cpp  ****     }
  78:my_pedal.cpp  ****     float Process(float x, float gLow, float gMid, float gHigh)
  79:my_pedal.cpp  ****     {
  80:my_pedal.cpp  ****         lp1 += a1 * (x - lp1);
  81:my_pedal.cpp  ****         lp2 += a2 * (x - lp2);
  82:my_pedal.cpp  ****         float low = lp1;
  83:my_pedal.cpp  ****         float mid = lp2 - lp1;
  84:my_pedal.cpp  ****         float high = x - lp2;
  85:my_pedal.cpp  ****         return low * gLow + mid * gMid + high * gHigh;
  86:my_pedal.cpp  ****     }
  87:my_pedal.cpp  **** };
  88:my_pedal.cpp  **** static EQ3 eq3;
  89:my_pedal.cpp  **** static volatile float g_eqLow = 0.5f, g_eqMid = 0.5f, g_eqHigh = 0.5f; // 0.5 = ą┐ą╗ąŠčüą║ąŠ (čāčüą
  90:my_pedal.cpp  **** // Delay ŌĆö čĆčāčćąĮąŠą╣ ą║ąŠą╗čīčåąĄą▓ąŠą╣ ą▒čāčäąĄčĆ ą▓ SDRAM (ą║ą░ą║ ą╗čāą┐ąĄčĆ, ą┐čĆąŠą▓ąĄčĆąĄ
  91:my_pedal.cpp  **** static const int DELAY_BUF = 48000;               // 1 čü @48ą║
  92:my_pedal.cpp  **** static float DSY_SDRAM_BSS g_delayBuf[DELAY_BUF]; // ą▒čāčäąĄčĆ delay ą▓ SDRAM
  93:my_pedal.cpp  **** static volatile int g_delaySamples = 1;           // čéąĄą║čāčēąĄąĄ ą▓čĆąĄą╝čÅ delay ą▓ čüčŹą╝ą┐ą╗ą
  94:my_pedal.cpp  **** static int g_delayWrite = 0;                      // čāą║ą░ąĘą░čéąĄą╗čī ąĘą░ą┐ąĖčüąĖ
  95:my_pedal.cpp  **** static float g_delayLp = 0.0f;                    // ążąØą¦ ąĮą░ ą┐ąŠą▓čéąŠčĆą░čģ (čéčæą╝ąĮąŠąĄ čŹč
  96:my_pedal.cpp  **** static Tremolo tremolo;
  97:my_pedal.cpp  **** static volatile bool g_tremOn = false;
  98:my_pedal.cpp  **** 
  99:my_pedal.cpp  **** // ą£ąŠą┤čāą╗čÅčåąĖąŠąĮąĮčŗąĄ čŹčäčäąĄą║čéčŗ (ą┐ąŠčüą╗ąĄ čāčüąĖą╗ąĖčéąĄą╗čÅ, ą┤ąŠ delay/reverb).
 100:my_pedal.cpp  **** // ąæčāčäąĄčĆčŗ ŌĆö ą▓ SDRAM (ą▓ DTCM ąĮąĄ ą▓ą╗ąĄąĘą░čÄčé; ą║ąŠąĮčüčéčĆčāą║čéąŠčĆčŗ ą┐čāčüčéčŗąĄ, I
 101:my_pedal.cpp  **** static Chorus DSY_SDRAM_BSS chorus;
ARM GAS  /var/folders/cn/msls48b51jq2dpk8d4mt2d4w0000gn/T//cczoUJhV.s 			page 9


 102:my_pedal.cpp  **** static Phaser DSY_SDRAM_BSS phaser;
 103:my_pedal.cpp  **** static Flanger DSY_SDRAM_BSS flanger;
 104:my_pedal.cpp  **** 
 105:my_pedal.cpp  **** // ą¤ą░čĆą░ą╝ąĄčéčĆčŗ AmpModule: 0=Gain 1=Mix 2=Level 3=Tone 4=Model 5=IR 6=NeuralOn 7=IROn
 106:my_pedal.cpp  **** static const int P_GAIN = 0, P_MIX = 1, P_LEVEL = 2, P_TONE = 3, P_MODEL = 4, P_IR = 5;
 107:my_pedal.cpp  **** 
 108:my_pedal.cpp  **** static const int SW_LEFT = 1, SW_RIGHT = 0; // ą┐ąŠą╝ąĄąĮčÅąĮčŗ ą╝ąĄčüčéą░ą╝ąĖ ą┐ąŠą┤ čäąĖąĘąĖčćąĄč
 109:my_pedal.cpp  **** 
 110:my_pedal.cpp  **** static int g_currentSong = 0;
 111:my_pedal.cpp  **** static float g_sampleRate = 48000.0f;
 112:my_pedal.cpp  **** 
 113:my_pedal.cpp  **** // ąØą░čüčéčĆąŠą╣ą║ąĖ LCD (System). ąÜąŠąĮčéčĆą░čüčé = electronic volume ST7565 (0..63), ą┐ąŠ čāą╝ą
 114:my_pedal.cpp  **** // ą»čĆą║ąŠčüčéčī ŌĆö ą┐ąŠą║ą░ ą┤ąĄą╝ąŠ (ą┐ąŠą┤čüą▓ąĄčéą║ą░ ąĮą░ PWM-ą┐ąĖąĮ ąĘą░ą▓ąĄą┤čæą╝ ą┐ąŠąĘąČ
 115:my_pedal.cpp  **** static int g_contrast = 0x13;
 116:my_pedal.cpp  **** static int g_brightness = 70;
 117:my_pedal.cpp  **** 
 118:my_pedal.cpp  **** // ąĀąĄąČąĖą╝čŗ ą┐čĆąĖą╗ąŠąČąĄąĮąĖčÅ.
 119:my_pedal.cpp  **** enum AppMode { MODE_PLAY, MODE_MENU, MODE_TUNER, MODE_EDIT, MODE_LOOPER, MODE_SYSTEM, MODE_CUSTOM, 
 120:my_pedal.cpp  **** static volatile AppMode g_mode = MODE_PLAY;
 121:my_pedal.cpp  **** 
 122:my_pedal.cpp  **** // --- ąøčāą┐ąĄčĆ: 4 ą┤ąŠčĆąŠąČą║ąĖ ą┐ąŠ 30 čü ą▓ SDRAM (ąĖąĮčéąĄčĆą╗ąĖą▓ą╗ąĄąĮąĮčŗą╣ ą▒čāčäąĄčĆ ->
 123:my_pedal.cpp  **** static const int LOOP_TRACKS = 3;
 124:my_pedal.cpp  **** static const int LOOP_LEN = 30 * 48000; // 30 čü @ 48 ą║ąōčå
 125:my_pedal.cpp  **** static float DSY_SDRAM_BSS g_loop[LOOP_LEN][LOOP_TRACKS];
 126:my_pedal.cpp  **** // ąĪąŠčüčéąŠčÅąĮąĖčÅ ą┤ąŠčĆąŠąČą║ąĖ: 0 ą┐čāčüčéąŠ,1 ąĘą░ą┐ąĖčüčī,2 ąĖą│čĆą░,3 mute,4 armed-rec,5 a
 127:my_pedal.cpp  **** static volatile uint8_t g_loopState[LOOP_TRACKS] = {0, 0, 0};
 128:my_pedal.cpp  **** static volatile int g_loopLen = 0;    // ą┤ą╗ąĖąĮą░ ą╝ą░čüčéąĄčĆ-ą┐ąĄčéą╗ąĖ (čüčŹą╝ą┐ą╗čŗ; ąĘą░ą┤ą░
 129:my_pedal.cpp  **** static volatile int g_loopPos = 0;    // ąŠą▒čēąĖą╣ čāą║ą░ąĘą░čéąĄą╗čī ą▓ąŠčüą┐čĆąŠąĖąĘą▓ąĄą┤ąĄąĮąĖ
 130:my_pedal.cpp  **** static volatile int g_loopActive = 0; // ą░ą║čéąĖą▓ąĮą░čÅ ą┤ąŠčĆąŠąČą║ą░ (čāą┐čĆą░ą▓ą╗ąĄąĮąĖąĄ)
 131:my_pedal.cpp  **** static volatile float g_loopVol[LOOP_TRACKS] = {1.0f, 1.0f, 1.0f}; // ą│čĆąŠą╝ą║ąŠčüčéąĖ ą┤ąŠčĆąŠąČ
 132:my_pedal.cpp  **** static int g_loopTone[LOOP_TRACKS] = {0, 0, 0}; // čéąŠąĮ (ąĖąĮą┤ąĄą║čü ą┐ąĄčüąĮąĖ) ąĮą░ ą┤ąŠčĆąŠąČ
 133:my_pedal.cpp  **** static const float LOOP_ARM_THRESH = 0.02f;        // ą┐ąŠčĆąŠą│ ą▓čģąŠą┤ą░ ą┤ą╗čÅ ą░ą▓čéąŠ-čüčéą░č
 134:my_pedal.cpp  **** static const int LOOP_LEAD = 240;    // ~5 ą╝čü ŌĆö ąŠčüčéą░ą▓ąĖčéčī ą┤ąŠ ą┐ąĄčĆą▓ąŠą╣ ąĮąŠčéčŗ ą┐č
 135:my_pedal.cpp  **** static volatile int g_loopStart = 0; // ą░ą▒čüąŠą╗čÄčéąĮčŗą╣ čüčéą░čĆčé ą┐ąĄčéą╗ąĖ ą▓ ą▒čāčäąĄčĆąĄ 
 136:my_pedal.cpp  **** static bool g_onsetFound = false;    // ąĮą░ą╣ą┤ąĄąĮą░ ą╗ąĖ ą┐ąĄčĆą▓ą░čÅ ąĮąŠčéą░ ą┐čĆąĖ ąĘą░ą┐ąĖčü
 137:my_pedal.cpp  **** static int g_onsetPos = 0;
 138:my_pedal.cpp  **** 
 139:my_pedal.cpp  **** // ą¢ąĖą▓ąŠą╣ ąŠčüčåąĖą╗ą╗ąŠą│čĆą░čä: ą║ąŠą╗čīčåąŠ ą┐ąŠčüą╗ąĄą┤ąĮąĖčģ ąŠčéčüčćčæčéąŠą▓ ą▓čŗčģąŠą┤ą░
 140:my_pedal.cpp  **** static const int SCOPE_N = 128;
 141:my_pedal.cpp  **** static float g_scope[SCOPE_N] = {0};
 142:my_pedal.cpp  **** static int g_scopeIdx = 0;
 143:my_pedal.cpp  **** static int g_scopeDecim = 0;
 144:my_pedal.cpp  **** 
 145:my_pedal.cpp  **** // ąÆčüą┐ą╗čŗą▓ą░čÄčēąĄąĄ ąĘąĮą░čćąĄąĮąĖąĄ ą┐ą░čĆą░ą╝ąĄčéčĆą░ ą┐čĆąĖ ą║čĆčāčćąĄąĮąĖąĖ ą┐ąŠčéą░ ą▓ ą
 146:my_pedal.cpp  **** static int g_loopPopupParam = -1;
 147:my_pedal.cpp  **** static uint32_t g_loopPopupUntil = 0;
 148:my_pedal.cpp  **** static float g_popupLast[6] = {-1, -1, -1, -1, -1, -1}; // ą┐ąŠčüą╗ąĄą┤ąĮąĄąĄ ą┐ąŠą║ą░ąĘą░ąĮąĮąŠąĄ 
 149:my_pedal.cpp  **** static int g_loopEncField = 0; // čćčéąŠ ą║čĆčāčéąĖčé čŹąĮą║ąŠą┤ąĄčĆ ą▓ ą╗čāą┐ąĄčĆąĄ: 0=ąóąŠąĮ 1=ą¤
 150:my_pedal.cpp  **** 
 151:my_pedal.cpp  **** // --- ą£ąĄčéčĆąŠąĮąŠą╝ (ąĮąĄąĘą░ą▓ąĖčüąĖą╝čŗą╣ ąŠčé ą┐ąĄčéą╗ąĖ, free-running) ---
 152:my_pedal.cpp  **** static volatile int   g_bpm = 120;
 153:my_pedal.cpp  **** static volatile int   g_beatsPerBar = 4;   // čĆą░ąĘą╝ąĄčĆ (ą┤ąŠą╗ąĖ ą▓ čéą░ą║čéąĄ)
 154:my_pedal.cpp  **** static volatile bool  g_metOn = false;     // ą║ą╗ąĖą║ ą┐ąŠ čāą╝ąŠą╗čćą░ąĮąĖčÄ ąÆą½ąÜąø
 155:my_pedal.cpp  **** static volatile float g_clickVol = 0.5f;   // ą│čĆąŠą╝ą║ąŠčüčéčī ą║ą╗ąĖą║ą░
 156:my_pedal.cpp  **** static volatile int   g_beatSamples = 24000; // čüčŹą╝ą┐ą╗ąŠą▓ ąĮą░ ą┤ąŠą╗čÄ (recomputeTempo)
 157:my_pedal.cpp  **** static volatile int   g_metCounter = 0;    // čüčćčæčéčćąĖą║ čüčŹą╝ą┐ą╗ąŠą▓ ą┤ąŠ čüą╗ąĄą┤čāčÄčēąĄą╣
 158:my_pedal.cpp  **** static volatile bool  g_looperEngaged = false; // ą╝čŗ ą▓ čĆąĄąČąĖą╝ąĄ ą╗čāą┐ąĄčĆą░
ARM GAS  /var/folders/cn/msls48b51jq2dpk8d4mt2d4w0000gn/T//cczoUJhV.s 			page 10


 159:my_pedal.cpp  **** static volatile int   g_beatShow = 0;      // čéąĄą║čāčēą░čÅ ą┤ąŠą╗čÅ 0..beatsPerBar-1
 160:my_pedal.cpp  **** static volatile int   g_clickEnv = 0;      // ąŠčüčéą░čéąŠą║ envelope ą║ą╗ąĖą║ą░ (čüčŹą╝ą┐ą╗čŗ)
 161:my_pedal.cpp  **** static volatile int   g_clickLen = 2000;   // ą┤ą╗ąĖąĮą░ ą║ą╗ąĖą║ą░ (čüčŹą╝ą┐ą╗čŗ)
 162:my_pedal.cpp  **** static volatile bool  g_clickAccent = false;
 163:my_pedal.cpp  **** static volatile float g_clickPhase = 0.0f;
 164:my_pedal.cpp  **** static volatile int   g_ledBeat = 0;       // ąŠčüčéą░čéąŠą║ čüą▓ąĄčćąĄąĮąĖčÅ LED ąĮą░ ą┤ąŠą╗čÄ (čü
 165:my_pedal.cpp  **** static volatile bool  g_countInOn = true;  // ąŠčéčüčćčæčé ą┐ąĄčĆąĄą┤ ąĘą░ą┐ąĖčüčīčÄ
 166:my_pedal.cpp  **** static volatile int   g_countInLeft = 0;   // ąŠčüčéą░ą╗ąŠčüčī ą┤ąŠą╗ąĄą╣ ąŠčéčüčćčæčéą░ (>0 = ąĖą┤
 167:my_pedal.cpp  **** 
 168:my_pedal.cpp  **** // --- čüąŠčüčéąŠčÅąĮąĖąĄ ISR <-> ą│ą╗ą░ą▓ąĮčŗą╣ čåąĖą║ą╗ ---
 169:my_pedal.cpp  **** static const int KNOBS = 6;
 170:my_pedal.cpp  **** static volatile bool g_effectOn = false; // čüčéą░čĆčé ą▓ BYPASS (ą▓ą║ą╗čÄčćą░ąĄčéčüčÅ čäčāčéčüą▓ąĖ
 171:my_pedal.cpp  **** static volatile int g_encDelta = 0;
 172:my_pedal.cpp  **** static volatile int g_encPress = 0;
 173:my_pedal.cpp  **** 
 174:my_pedal.cpp  **** static volatile bool g_knobChanged[KNOBS];   // 1 = ą┐ąŠčé ┬½ą▓ąĘčÅą╗┬╗ čāą┐čĆą░ą▓ą╗ąĄąĮąĖąĄ ą┐ą░čĆ
 175:my_pedal.cpp  **** static volatile float g_knobCache[KNOBS];     // čéąĄą║čāčēąĄąĄ ąĘąĮą░čćąĄąĮąĖąĄ ą┐ąŠčéą░ (ą║ąŠą│ą┤
 176:my_pedal.cpp  **** static volatile float g_knobRef[KNOBS];       // čĆąĄčäąĄčĆąĄąĮčü ą┐ąŠąĘąĖčåąĖąĖ ą┐čĆąĖ ąĘą░ą│čĆčāą
 177:my_pedal.cpp  **** static volatile bool g_knobRearm = false;     // ą┐ąĄčĆąĄ-čüąĮčÅčéčī čĆąĄčäąĄčĆąĄąĮčüčŗ (ą┐ąŠčüą╗ąĄ
 178:my_pedal.cpp  **** static volatile bool g_knobsInit = false;
 179:my_pedal.cpp  **** static const float KNOB_MOVE = 0.03f;         // ąĮą░čüą║ąŠą╗čīą║ąŠ ą┤ą▓ąĖąĮčāčéčī ą┐ąŠčé, čćčéąŠą▒
 180:my_pedal.cpp  **** 
 181:my_pedal.cpp  **** static volatile int g_muteCountdown = 0;
 182:my_pedal.cpp  **** static int g_switchMuteSamples = 0;
 183:my_pedal.cpp  **** 
 184:my_pedal.cpp  **** // ąØąŠą╣ąĘ-ą│ąĄą╣čé.
 185:my_pedal.cpp  **** static float g_gateEnv = 0.0f, g_gate = 0.0f;
 186:my_pedal.cpp  **** static int g_gateHold = 0, g_gateHoldSamples = 0;
 187:my_pedal.cpp  **** static const float GATE_THRESH = 0.0012f;
 188:my_pedal.cpp  **** 
 189:my_pedal.cpp  **** // ąŁčäčäąĄą║čéčŗ (ą┐čĆą░ą▓čÅčéčüčÅ ąĖąĘ applySong / Edit FX).
 190:my_pedal.cpp  **** static volatile float g_revMix = 0.0f, g_delayMix = 0.0f, g_delayFb = 0.0f, g_tremDepth = 0.0f;
 191:my_pedal.cpp  **** static volatile float g_cpuLoad = 0.0f;
 192:my_pedal.cpp  **** 
 193:my_pedal.cpp  **** // ąöąŠą┐. ą┐ą░čĆą░ą╝ąĄčéčĆčŗ čŹčäčäąĄą║čéąŠą▓ (ą┐čĆą░ą▓čÅčéčüčÅ ą┐ąŠčéą░ą╝ąĖ ą▓ Edit FX).
 194:my_pedal.cpp  **** static volatile float g_tremRate = 5.0f;                 // ąōčå
 195:my_pedal.cpp  **** static volatile float g_delayTimeMs = 300.0f;            // ą╝čü
 196:my_pedal.cpp  **** static volatile float g_revFb = 0.84f, g_revDamp = 0.35f;
 197:my_pedal.cpp  **** static volatile float g_chorusMix = 0.0f, g_chorusRate = 0.4f, g_chorusDepth = 0.5f;
 198:my_pedal.cpp  **** static volatile float g_phaserMix = 0.0f, g_phaserRate = 0.3f, g_phaserDepth = 0.6f, g_phaserFb = 0
 199:my_pedal.cpp  **** static volatile float g_flangerMix = 0.0f, g_flangerRate = 0.2f, g_flangerDepth = 0.5f, g_flangerFb
 200:my_pedal.cpp  **** static volatile float g_compAmt = 0.0f; // ą║ąŠą╝ą┐čĆąĄčüčüąŠčĆ (0=ą▓čŗą║ą╗), ą┤ąŠ čāčüąĖą╗ąĖčéąĄą╗
 201:my_pedal.cpp  **** static volatile float g_boost = 0.0f;   // ą▒čāčüčé/overdrive (0=ą▓čŗą║ą╗), ą┤ąŠ čāčüąĖą╗ąĖčéąĄą╗čÅ
 202:my_pedal.cpp  **** static float g_compEnv = 0.0f;          // envelope-ą┤ąĄčéąĄą║čéąŠčĆ ą║ąŠą╝ą┐čĆąĄčüčüąŠčĆą░
 203:my_pedal.cpp  **** 
 204:my_pedal.cpp  **** // ą¤čĆąĖą╝ąĄąĮąĖčéčī ą┐ą░čĆą░ą╝ąĄčéčĆčŗ ą╝ąŠą┤čāą╗čÅčåąĖąŠąĮąĮčŗčģ čŹčäčäąĄą║čéąŠą▓ ą║ ąŠą▒čŖąĄą║č
 205:my_pedal.cpp  **** static void applyModParams()
 206:my_pedal.cpp  **** {
 207:my_pedal.cpp  ****     chorus.SetLfoFreq(0.1f + g_chorusRate * 4.0f);
 208:my_pedal.cpp  ****     chorus.SetLfoDepth(g_chorusDepth);
 209:my_pedal.cpp  ****     chorus.SetFeedback(0.2f);
 210:my_pedal.cpp  ****     phaser.SetLfoFreq(0.1f + g_phaserRate * 4.0f);
 211:my_pedal.cpp  ****     phaser.SetLfoDepth(g_phaserDepth);
 212:my_pedal.cpp  ****     phaser.SetFeedback(g_phaserFb);
 213:my_pedal.cpp  ****     phaser.SetFreq(500.0f);
 214:my_pedal.cpp  ****     flanger.SetLfoFreq(0.05f + g_flangerRate * 2.0f);
 215:my_pedal.cpp  ****     flanger.SetLfoDepth(g_flangerDepth);
ARM GAS  /var/folders/cn/msls48b51jq2dpk8d4mt2d4w0000gn/T//cczoUJhV.s 			page 11


 216:my_pedal.cpp  ****     flanger.SetFeedback(g_flangerFb);
 217:my_pedal.cpp  **** }
 218:my_pedal.cpp  **** 
 219:my_pedal.cpp  **** // --- ąóčÄąĮąĄčĆ ---
 220:my_pedal.cpp  **** static const int TUNER_DECIM = 4;
 221:my_pedal.cpp  **** static const int TUNER_N = 1024;
 222:my_pedal.cpp  **** static const int TLAG_MIN = 16;  // ~750 ąōčå ą┐čĆąĖ 12 ą║ąōčå
 223:my_pedal.cpp  **** static const int TLAG_MAX = 165; // ~73 ąōčå
 224:my_pedal.cpp  **** // ąæčāčäąĄčĆčŗ čéčÄąĮąĄčĆą░ ŌĆö ą▓ RAM_D2_DMA (DTCMRAM ąĘą░ąĮčÅčéą░ ą▒čāčäąĄčĆąŠą╝ delay).
 225:my_pedal.cpp  **** static float DMA_BUFFER_MEM_SECTION g_tunerBuf[TUNER_N];
 226:my_pedal.cpp  **** static float DMA_BUFFER_MEM_SECTION g_acBuf[TUNER_N];
 227:my_pedal.cpp  **** static float DMA_BUFFER_MEM_SECTION g_acCorr[TLAG_MAX + 2];
 228:my_pedal.cpp  **** static volatile int g_tunerIdx = 0;
 229:my_pedal.cpp  **** static int g_tunerDecimCnt = 0;
 230:my_pedal.cpp  **** static float g_tunerLp = 0.0f;   // ą░ąĮčéąĖą░ą╗ąĖą░čüąĖąĮą│ąŠą▓čŗą╣ ążąØą¦ ą┐ąĄčĆąĄą┤ ą┐čĆąŠčĆąĄąČ
 231:my_pedal.cpp  **** static float g_tunerFreq = 0.0f; // 0 = ąĮąĄčé čüąĖą│ąĮą░ą╗ą░
 232:my_pedal.cpp  **** 
 233:my_pedal.cpp  **** // --- ąĪąŠčģčĆą░ąĮąĄąĮąĖąĄ ą▓ QSPI ---
 234:my_pedal.cpp  **** static const int MAX_CUSTOM = 12; // ą╝ą░ą║čüąĖą╝čāą╝ ą┐ąŠą╗čīąĘąŠą▓ą░čéąĄą╗čīčüą║ąĖčģ ą┐čĆąĄčüąĄčé
 235:my_pedal.cpp  **** 
 236:my_pedal.cpp  **** // ą¤ąŠą╗ąĮčŗą╣ ąĮą░ą▒ąŠčĆ ą┐ą░čĆą░ą╝ąĄčéčĆąŠą▓ ą┐čĆąĄčüąĄčéą░ (ą┤ą╗čÅ override čäą░ą▒čĆąĖčćąĮčŗčģ 
 237:my_pedal.cpp  **** struct StoredPreset
 238:my_pedal.cpp  **** {
 239:my_pedal.cpp  ****     int model, ir;
 240:my_pedal.cpp  ****     float gain, mix, level, tone, revMix, delayMix, delayTimeMs, delayFb, tremDepth, tremRate;
 241:my_pedal.cpp  ****     // ąØąŠą▓čŗąĄ čŹčäčäąĄą║čéčŗ (čüąŠčģčĆą░ąĮčÅčÄčéčüčÅ ą▓ą╝ąĄčüčéąĄ čü ą┐čĆąĄčüąĄčéąŠą╝).
 242:my_pedal.cpp  ****     float eqLow, eqMid, eqHigh;
 243:my_pedal.cpp  ****     float revFb, revDamp;
 244:my_pedal.cpp  ****     float chorusMix, chorusRate, chorusDepth;
 245:my_pedal.cpp  ****     float phaserMix, phaserRate, phaserDepth, phaserFb;
 246:my_pedal.cpp  ****     float flangerMix, flangerRate, flangerDepth, flangerFb;
 247:my_pedal.cpp  ****     float compAmt, boost; // ą║ąŠą╝ą┐čĆąĄčüčüąŠčĆ + ą▒čāčüčé
 248:my_pedal.cpp  **** };
 249:my_pedal.cpp  **** struct CustomPreset
 250:my_pedal.cpp  **** {
 251:my_pedal.cpp  ****     char name[12];
 252:my_pedal.cpp  ****     StoredPreset p;
 253:my_pedal.cpp  **** };
 254:my_pedal.cpp  **** 
 255:my_pedal.cpp  **** // ---- ąæą░ąĮą║ ą┐čĆąĄčüąĄčéąŠą▓: ąĖąĘ čäą░ą╣ą╗ą░ ą▓ QSPI (0x90100000) ąĖą╗ąĖ ąĘą░ą▓ąŠą┤čüą║ąŠą╣ s
 256:my_pedal.cpp  **** static const int MAX_BANK = 32;
 257:my_pedal.cpp  **** 
 258:my_pedal.cpp  **** // ą×ą┤ąĖąĮ ą┐čĆąĄčüąĄčé ą▓ čäą░ą╣ą╗ąĄ (ą▒ąĄąĘ čāą║ą░ąĘą░čéąĄą╗ąĄą╣ ŌĆö ąĖą╝ąĄąĮą░ čäąĖą║čüąĖčĆąŠą▓
 259:my_pedal.cpp  **** struct FilePreset
 260:my_pedal.cpp  **** {
 261:my_pedal.cpp  ****     char band[12];
 262:my_pedal.cpp  ****     char song[12];
 263:my_pedal.cpp  ****     int32_t model, ir;
 264:my_pedal.cpp  ****     float gain, mix, level, tone, revMix, delayMix, delayTimeMs, delayFb, tremDepth, tremRate;
 265:my_pedal.cpp  ****     float eqLow, eqMid, eqHigh, revFb, revDamp;
 266:my_pedal.cpp  **** };
 267:my_pedal.cpp  **** struct PresetFileHeader
 268:my_pedal.cpp  **** {
 269:my_pedal.cpp  ****     uint32_t magic;    // "VMG1"
 270:my_pedal.cpp  ****     uint32_t version;  // 1
 271:my_pedal.cpp  ****     uint32_t count;    // čćąĖčüą╗ąŠ ą┐čĆąĄčüąĄčéąŠą▓
 272:my_pedal.cpp  ****     uint32_t reserved; // FilePreset[count] čüą╗ąĄą┤ąŠą╝
ARM GAS  /var/folders/cn/msls48b51jq2dpk8d4mt2d4w0000gn/T//cczoUJhV.s 			page 12


 273:my_pedal.cpp  **** };
 274:my_pedal.cpp  **** static const uint32_t PRESET_MAGIC = 0x31474D56;       // "VMG1" (LE)
 275:my_pedal.cpp  **** static const uint32_t PRESET_FILE_ADDR = 0x90100000;   // QSPI, ą┤ą░ą╗ąĄą║ąŠ ąŠčé ą┐čĆąŠčłąĖą▓ą║ąĖ 
 276:my_pedal.cpp  **** static_assert(sizeof(FilePreset) == 92, "FilePreset must match make_presets.py (<12s12s2i15f)");
 277:my_pedal.cpp  **** static_assert(sizeof(PresetFileHeader) == 16, "PresetFileHeader must be 16 bytes (<4sIII)");
 278:my_pedal.cpp  **** 
 279:my_pedal.cpp  **** // ąÉą║čéąĖą▓ąĮčŗą╣ ą▒ą░ąĮą║: čāą║ą░ąĘą░čéąĄą╗čī + ą║ąŠą╗ąĖčćąĄčüčéą▓ąŠ (ą┐ąŠ čāą╝ąŠą╗čćą░ąĮąĖčÄ ąĘ
 280:my_pedal.cpp  **** static const SongPreset *g_bank = kSongs;
 281:my_pedal.cpp  **** static int g_bankCount = kSongCount;
 282:my_pedal.cpp  **** static SongPreset g_fileSongs[MAX_BANK];
 283:my_pedal.cpp  **** static char g_fileBand[MAX_BANK][12];
 284:my_pedal.cpp  **** static char g_fileSong[MAX_BANK][12];
 285:my_pedal.cpp  **** 
 286:my_pedal.cpp  **** struct SaveData
 287:my_pedal.cpp  **** {
 288:my_pedal.cpp  ****     uint32_t version;
 289:my_pedal.cpp  ****     uint8_t ovUsed[MAX_BANK];   // 1 = čäą░ą▒čĆąĖčćąĮčŗą╣ ą┐čĆąĄčüąĄčé ą┐ąĄčĆąĄąŠą┐čĆąĄą┤ąĄą╗čæąĮ č
 290:my_pedal.cpp  ****     StoredPreset ov[MAX_BANK];  // ą┐ąĄčĆąĄąŠą┐čĆąĄą┤ąĄą╗ąĄąĮąĖčÅ čäą░ą▒čĆąĖčćąĮčŗčģ
 291:my_pedal.cpp  ****     int customCount;              // čüą║ąŠą╗čīą║ąŠ custom-ą┐čĆąĄčüąĄčéąŠą▓ ą┤ąŠą▒ą░ą▓ą╗ąĄąĮąŠ
 292:my_pedal.cpp  ****     CustomPreset custom[MAX_CUSTOM];
 293:my_pedal.cpp  ****     bool operator!=(const SaveData &o) const { return memcmp(this, &o, sizeof(SaveData)) != 0; }
 294:my_pedal.cpp  ****     bool operator==(const SaveData &o) const { return !(*this != o); }
 295:my_pedal.cpp  **** };
 296:my_pedal.cpp  **** static const uint32_t SAVE_VERSION = 7; // + compAmt/boost ą▓ StoredPreset
 297:my_pedal.cpp  **** PersistentStorage<SaveData> storage(hardware.seed.qspi);
 298:my_pedal.cpp  **** 
 299:my_pedal.cpp  **** // ąŚą░ą▓ąŠą┤čüą║ąŠą╣ ┬½ą┐čāčüčéąŠą╣┬╗ custom-čéąŠąĮ (čćąĖčüčéčŗą╣ Fender).
 300:my_pedal.cpp  **** static const SongPreset kBlankCustom = {"Custom", "My Tone", "Clean", 1, 3, 0.40f, 1.0f, 0.55f, 0.5
 301:my_pedal.cpp  **** 
 302:my_pedal.cpp  **** static StoredPreset presetToStored(const SongPreset &s)
 303:my_pedal.cpp  **** {
 304:my_pedal.cpp  ****     StoredPreset t;
 305:my_pedal.cpp  ****     t.model = s.ampModelBin; t.ir = s.irBin;
 306:my_pedal.cpp  ****     t.gain = s.gain; t.mix = s.mix; t.level = s.level; t.tone = s.tone;
 307:my_pedal.cpp  ****     t.revMix = s.revMix; t.delayMix = s.delayMix; t.delayTimeMs = s.delayTimeMs;
 308:my_pedal.cpp  ****     t.delayFb = s.delayFb; t.tremDepth = s.tremDepth; t.tremRate = s.tremRate;
 309:my_pedal.cpp  ****     // ąØąŠą▓čŗąĄ ą┐ąŠą╗čÅ: 0 ą▓ song_library => ┬½ą┐ąŠ čāą╝ąŠą╗čćą░ąĮąĖčÄ┬╗.
 310:my_pedal.cpp  ****     t.eqLow = s.eqLow > 0.0f ? s.eqLow : 0.5f;
 311:my_pedal.cpp  ****     t.eqMid = s.eqMid > 0.0f ? s.eqMid : 0.5f;
 312:my_pedal.cpp  ****     t.eqHigh = s.eqHigh > 0.0f ? s.eqHigh : 0.5f;
 313:my_pedal.cpp  ****     t.revFb = s.revFb > 0.0f ? s.revFb : 0.84f;
 314:my_pedal.cpp  ****     t.revDamp = s.revDamp > 0.0f ? s.revDamp : 0.35f;
 315:my_pedal.cpp  ****     // ąźąŠčĆčāčü ąĖąĘ ą┐čĆąĄčüąĄčéą░ (0 mix = ą▓čŗą║ą╗); phaser/flanger ą▓čŗą║ą╗čÄčćąĄąĮčŗ.
 316:my_pedal.cpp  ****     t.chorusMix = s.chorusMix; t.chorusRate = s.chorusRate > 0.0f ? s.chorusRate : 0.4f; t.chorusDe
 317:my_pedal.cpp  ****     t.phaserMix = 0.0f; t.phaserRate = 0.3f; t.phaserDepth = 0.6f; t.phaserFb = 0.3f;
 318:my_pedal.cpp  ****     t.flangerMix = 0.0f; t.flangerRate = 0.2f; t.flangerDepth = 0.5f; t.flangerFb = 0.3f;
 319:my_pedal.cpp  ****     // ąÜąŠą╝ą┐čĆąĄčüčüąŠčĆ + ą▒čāčüčé ąĖąĘ ą┐čĆąĄčüąĄčéą░.
 320:my_pedal.cpp  ****     t.compAmt = s.comp; t.boost = s.boost;
 321:my_pedal.cpp  ****     return t;
 322:my_pedal.cpp  **** }
 323:my_pedal.cpp  **** static int totalPresets() { return g_bankCount + storage.GetSettings().customCount; }
 324:my_pedal.cpp  **** 
 325:my_pedal.cpp  **** // ąŚą░ą│čĆčāąĘąĖčéčī ą▒ą░ąĮą║ ą┐čĆąĄčüąĄčéąŠą▓ ąĖąĘ čäą░ą╣ą╗ą░ ą▓ QSPI (ąĄčüą╗ąĖ ąĄčüčéčī ą▓ą░ą╗ąĖ
 326:my_pedal.cpp  **** static void loadPresetBank()
 327:my_pedal.cpp  **** {
 328:my_pedal.cpp  ****     const PresetFileHeader *h = reinterpret_cast<const PresetFileHeader *>(PRESET_FILE_ADDR);
 329:my_pedal.cpp  ****     if (h->magic != PRESET_MAGIC || h->version != 1 || h->count == 0 || h->count > (uint32_t)MAX_BA
ARM GAS  /var/folders/cn/msls48b51jq2dpk8d4mt2d4w0000gn/T//cczoUJhV.s 			page 13


 330:my_pedal.cpp  ****         return; // ąĮąĄčé ą▓ą░ą╗ąĖą┤ąĮąŠą│ąŠ čäą░ą╣ą╗ą░ -> ąĘą░ą▓ąŠą┤čüą║ąŠą╣ song_library
 331:my_pedal.cpp  ****     const FilePreset *fp = reinterpret_cast<const FilePreset *>(PRESET_FILE_ADDR + sizeof(PresetFil
 332:my_pedal.cpp  ****     int n = (int)h->count;
 333:my_pedal.cpp  ****     for (int i = 0; i < n; i++)
 334:my_pedal.cpp  ****     {
 335:my_pedal.cpp  ****         memcpy(g_fileBand[i], fp[i].band, 12); g_fileBand[i][11] = 0;
 336:my_pedal.cpp  ****         memcpy(g_fileSong[i], fp[i].song, 12); g_fileSong[i][11] = 0;
 337:my_pedal.cpp  ****         SongPreset s = {};
 338:my_pedal.cpp  ****         s.band = g_fileBand[i]; s.song = g_fileSong[i];
 339:my_pedal.cpp  ****         s.ampModelBin = fp[i].model; s.irBin = fp[i].ir;
 340:my_pedal.cpp  ****         s.gain = fp[i].gain; s.mix = fp[i].mix; s.level = fp[i].level; s.tone = fp[i].tone;
 341:my_pedal.cpp  ****         s.revMix = fp[i].revMix; s.delayMix = fp[i].delayMix; s.delayTimeMs = fp[i].delayTimeMs;
 342:my_pedal.cpp  ****         s.delayFb = fp[i].delayFb; s.tremDepth = fp[i].tremDepth; s.tremRate = fp[i].tremRate;
 343:my_pedal.cpp  ****         s.eqLow = fp[i].eqLow; s.eqMid = fp[i].eqMid; s.eqHigh = fp[i].eqHigh;
 344:my_pedal.cpp  ****         s.revFb = fp[i].revFb; s.revDamp = fp[i].revDamp;
 345:my_pedal.cpp  ****         g_fileSongs[i] = s;
 346:my_pedal.cpp  ****     }
 347:my_pedal.cpp  ****     g_bank = g_fileSongs;
 348:my_pedal.cpp  ****     g_bankCount = n;
 349:my_pedal.cpp  **** }
 350:my_pedal.cpp  **** 
 351:my_pedal.cpp  **** // ąŁčäčäąĄą║čéąĖą▓ąĮčŗą╣ ą┐čĆąĄčüąĄčé ą┤ą╗čÅ ąĖąĮą┤ąĄą║čüą░ ąĮą░ą▓ąĖą│ą░čåąĖąĖ (čü čāčćčæčéąŠą╝ ov
 352:my_pedal.cpp  **** static void getEffective(int idx, StoredPreset &out, const char *&band, const char *&song)
 353:my_pedal.cpp  **** {
 354:my_pedal.cpp  ****     SaveData &sd = storage.GetSettings();
 355:my_pedal.cpp  ****     if (idx < g_bankCount)
 356:my_pedal.cpp  ****     {
 357:my_pedal.cpp  ****         band = g_bank[idx].band; song = g_bank[idx].song;
 358:my_pedal.cpp  ****         out = sd.ovUsed[idx] ? sd.ov[idx] : presetToStored(g_bank[idx]);
 359:my_pedal.cpp  ****     }
 360:my_pedal.cpp  ****     else
 361:my_pedal.cpp  ****     {
 362:my_pedal.cpp  ****         CustomPreset &c = sd.custom[idx - g_bankCount];
 363:my_pedal.cpp  ****         band = "Custom"; song = c.name;
 364:my_pedal.cpp  ****         out = c.p;
 365:my_pedal.cpp  ****     }
 366:my_pedal.cpp  **** }
 367:my_pedal.cpp  **** 
 368:my_pedal.cpp  **** // ---- ąōčĆčāą┐ą┐ąĖčĆąŠą▓ą║ą░ čéąŠąĮąŠą▓ ą▓ ą┐ąĄčüąĮąĖ -------------------------------------------
 369:my_pedal.cpp  **** // ą¤čĆąĄčüąĄčéčŗ ąŠą┤ąĮąŠą╣ ą┐ąĄčüąĮąĖ ąĖą┤čāčé ą¤ą×ąöąĀą»ąö (ąŠą┤ąĖąĮą░ą║ąŠą▓čŗąĄ band+song). ąĪč
 370:my_pedal.cpp  **** // ą┤ą╗čÅ ą║ą░ąČą┤ąŠą│ąŠ ą┐ą╗ąŠčüą║ąŠą│ąŠ ąĖąĮą┤ąĄą║čüą░ ŌĆö ą┐ąĄčĆą▓čŗą╣ čéąŠąĮ ą┐ąĄčüąĮąĖ, čćąĖčü
 371:my_pedal.cpp  **** static const int MAX_PRESETS_TOTAL = MAX_BANK + MAX_CUSTOM;
 372:my_pedal.cpp  **** static int g_toneFirst[MAX_PRESETS_TOTAL];      // ą┐ą╗ąŠčüą║ąĖą╣ ąĖąĮą┤ąĄą║čü 1-ą│ąŠ čéąŠąĮą░ ą┐ąĄ
 373:my_pedal.cpp  **** static int g_toneCount[MAX_PRESETS_TOTAL];      // čéąŠąĮąŠą▓ ą▓ ą┐ąĄčüąĮąĄ
 374:my_pedal.cpp  **** static int g_songNo[MAX_PRESETS_TOTAL];         // ąĮąŠą╝ąĄčĆ ą┐ąĄčüąĮąĖ (1..g_songCount)
 375:my_pedal.cpp  **** static int g_songFirstList[MAX_PRESETS_TOTAL];  // ą┐ąĄčĆą▓čŗą╣ čéąŠąĮ ą║ą░ąČą┤ąŠą╣ ą┐ąĄčüąĮąĖ
 376:my_pedal.cpp  **** static int g_songCount = 0;
 377:my_pedal.cpp  **** 
 378:my_pedal.cpp  **** static void buildSongTable()
 379:my_pedal.cpp  **** {
 380:my_pedal.cpp  ****     int total = totalPresets();
 381:my_pedal.cpp  ****     if (total > MAX_PRESETS_TOTAL) total = MAX_PRESETS_TOTAL;
 382:my_pedal.cpp  ****     g_songCount = 0;
 383:my_pedal.cpp  ****     int i = 0;
 384:my_pedal.cpp  ****     while (i < total)
 385:my_pedal.cpp  ****     {
 386:my_pedal.cpp  ****         StoredPreset t; const char *b; const char *s;
ARM GAS  /var/folders/cn/msls48b51jq2dpk8d4mt2d4w0000gn/T//cczoUJhV.s 			page 14


 387:my_pedal.cpp  ****         getEffective(i, t, b, s);
 388:my_pedal.cpp  ****         int base = i;
 389:my_pedal.cpp  ****         int j = i + 1;
 390:my_pedal.cpp  ****         while (j < total)
 391:my_pedal.cpp  ****         {
 392:my_pedal.cpp  ****             StoredPreset t2; const char *b2; const char *s2;
 393:my_pedal.cpp  ****             getEffective(j, t2, b2, s2);
 394:my_pedal.cpp  ****             if (strcmp(b2, b) == 0 && strcmp(s2, s) == 0) j++;
 395:my_pedal.cpp  ****             else break;
 396:my_pedal.cpp  ****         }
 397:my_pedal.cpp  ****         int cnt = j - base;
 398:my_pedal.cpp  ****         g_songFirstList[g_songCount] = base;
 399:my_pedal.cpp  ****         for (int k = base; k < j; k++)
 400:my_pedal.cpp  ****         {
 401:my_pedal.cpp  ****             g_toneFirst[k] = base;
 402:my_pedal.cpp  ****             g_toneCount[k] = cnt;
 403:my_pedal.cpp  ****             g_songNo[k] = g_songCount + 1;
 404:my_pedal.cpp  ****         }
 405:my_pedal.cpp  ****         g_songCount++;
 406:my_pedal.cpp  ****         i = j;
 407:my_pedal.cpp  ****     }
 408:my_pedal.cpp  **** }
 409:my_pedal.cpp  **** 
 410:my_pedal.cpp  **** static bool isBinnedKnob(int i) { return i == 4 || i == 5; }
 411:my_pedal.cpp  **** 
 412:my_pedal.cpp  **** static void AudioCallback(AudioHandle::InputBuffer in, AudioHandle::OutputBuffer out, size_t size)
 413:my_pedal.cpp  **** {
 414:my_pedal.cpp  ****     uint32_t t0 = System::GetUs();
 415:my_pedal.cpp  **** 
 416:my_pedal.cpp  ****     hardware.ProcessAnalogControls();
 417:my_pedal.cpp  ****     hardware.ProcessDigitalControls();
 418:my_pedal.cpp  **** 
 419:my_pedal.cpp  ****     for (int i = 0; i < KNOBS; i++)
 420:my_pedal.cpp  ****     {
 421:my_pedal.cpp  ****         float raw = hardware.GetKnobValue(i);
 422:my_pedal.cpp  ****         if (!g_knobsInit) { g_knobChanged[i] = false; g_knobRef[i] = raw; g_knobCache[i] = raw; con
 423:my_pedal.cpp  ****         if (g_knobRearm) { g_knobChanged[i] = false; g_knobRef[i] = raw; } // ąĮąŠą▓čŗą╣ ą┐čĆąĄčüąĄ
 424:my_pedal.cpp  ****         if (!g_knobChanged[i])
 425:my_pedal.cpp  ****         {
 426:my_pedal.cpp  ****             // ┬½ą▓ąĘčÅčéčī┬╗ ą┐ą░čĆą░ą╝ąĄčéčĆ čéąŠą╗čīą║ąŠ ąĄčüą╗ąĖ ą┐ąŠčé ąĘą░ą╝ąĄčéąĮąŠ čüą┤ą▓ąĖ
 427:my_pedal.cpp  ****             if (raw > g_knobRef[i] + KNOB_MOVE || raw < g_knobRef[i] - KNOB_MOVE) { g_knobChanged[i
 428:my_pedal.cpp  ****         }
 429:my_pedal.cpp  ****         else g_knobCache[i] = raw;
 430:my_pedal.cpp  ****     }
 431:my_pedal.cpp  ****     g_knobRearm = false;
 432:my_pedal.cpp  **** 
 433:my_pedal.cpp  ****     g_encDelta += hardware.encoders[0].Increment();
 434:my_pedal.cpp  ****     if (hardware.encoders[0].RisingEdge()) g_encPress++;
 435:my_pedal.cpp  **** 
 436:my_pedal.cpp  ****     bool tuner = (g_mode == MODE_TUNER);
 437:my_pedal.cpp  **** 
 438:my_pedal.cpp  ****     for (size_t i = 0; i < size; i++)
 439:my_pedal.cpp  ****     {
 440:my_pedal.cpp  ****         // ąÆ čĆąĄąČąĖą╝ąĄ čéčÄąĮąĄčĆą░: čüąŠą▒ąĖčĆą░ąĄą╝ ą▓čģąŠą┤ (čü ą┐čĆąŠčĆąĄąČąĖą▓ą░ąĮąĖąĄą╝) 
 441:my_pedal.cpp  ****         // ąØąĢ ą│ąŠąĮčÅčÅ čāčüąĖą╗ąĖčéąĄą╗čī -> ąŠčüą▓ąŠą▒ąŠąČą┤ą░ąĄą╝ CPU ą┐ąŠą┤ ą┤ąĄčéąĄą║čéąŠčĆ
 442:my_pedal.cpp  ****         if (tuner)
 443:my_pedal.cpp  ****         {
ARM GAS  /var/folders/cn/msls48b51jq2dpk8d4mt2d4w0000gn/T//cczoUJhV.s 			page 15


 444:my_pedal.cpp  ****             // ążąØą¦ ~1.2 ą║ąōčå ą┐ąĄčĆąĄą┤ ą┐čĆąŠčĆąĄąČąĖą▓ą░ąĮąĖąĄą╝ ŌĆö čāą▒ąĖčĆą░ąĄčé ą░ą╗ąĖą░
 445:my_pedal.cpp  ****             g_tunerLp += 0.16f * (in[0][i] - g_tunerLp);
 446:my_pedal.cpp  ****             if (++g_tunerDecimCnt >= TUNER_DECIM)
 447:my_pedal.cpp  ****             {
 448:my_pedal.cpp  ****                 g_tunerDecimCnt = 0;
 449:my_pedal.cpp  ****                 g_tunerBuf[g_tunerIdx] = g_tunerLp;
 450:my_pedal.cpp  ****                 if (++g_tunerIdx >= TUNER_N) g_tunerIdx = 0;
 451:my_pedal.cpp  ****             }
 452:my_pedal.cpp  ****             out[0][i] = in[0][i];
 453:my_pedal.cpp  ****             out[1][i] = in[1][i];
 454:my_pedal.cpp  ****             continue;
 455:my_pedal.cpp  ****         }
 456:my_pedal.cpp  **** 
 457:my_pedal.cpp  ****         if (g_muteCountdown > 0) { g_muteCountdown--; out[0][i] = 0.0f; out[1][i] = 0.0f; continue;
 458:my_pedal.cpp  **** 
 459:my_pedal.cpp  ****         if (g_effectOn)
 460:my_pedal.cpp  ****         {
 461:my_pedal.cpp  ****             float dry = in[0][i];
 462:my_pedal.cpp  ****             float av = fabsf(dry);
 463:my_pedal.cpp  ****             if (av > g_gateEnv) g_gateEnv = av; else g_gateEnv *= 0.99985f;
 464:my_pedal.cpp  ****             if (g_gateEnv > GATE_THRESH) g_gateHold = g_gateHoldSamples;
 465:my_pedal.cpp  ****             float target = (g_gateHold > 0) ? 1.0f : 0.0f;
 466:my_pedal.cpp  ****             if (g_gateHold > 0) g_gateHold--;
 467:my_pedal.cpp  ****             float coef = (target > g_gate) ? 0.03f : 0.00012f;
 468:my_pedal.cpp  ****             g_gate += (target - g_gate) * coef;
 469:my_pedal.cpp  **** 
 470:my_pedal.cpp  ****             // ąÜąŠą╝ą┐čĆąĄčüčüąŠčĆ (ą┤ąŠ čāčüąĖą╗ąĖčéąĄą╗čÅ) ŌĆö ą┐ą╗ąŠčéąĮčŗą╣ funk/clean.
 471:my_pedal.cpp  ****             if (g_compAmt > 0.001f)
 472:my_pedal.cpp  ****             {
 473:my_pedal.cpp  ****                 float lvl = fabsf(dry);
 474:my_pedal.cpp  ****                 g_compEnv += (lvl - g_compEnv) * (lvl > g_compEnv ? 0.01f : 0.0008f);
 475:my_pedal.cpp  ****                 float thresh = 0.12f, cg = 1.0f;
 476:my_pedal.cpp  ****                 if (g_compEnv > thresh)
 477:my_pedal.cpp  ****                 {
 478:my_pedal.cpp  ****                     float ratio = 1.0f + g_compAmt * 7.0f;
 479:my_pedal.cpp  ****                     float outLvl = thresh + (g_compEnv - thresh) / ratio;
 480:my_pedal.cpp  ****                     cg = outLvl / g_compEnv;
 481:my_pedal.cpp  ****                 }
 482:my_pedal.cpp  ****                 dry = dry * cg * (1.0f + g_compAmt * 1.5f); // + makeup
 483:my_pedal.cpp  ****             }
 484:my_pedal.cpp  ****             // ąæčāčüčé/overdrive (ą┤ąŠ čāčüąĖą╗ąĖčéąĄą╗čÅ) ŌĆö ą┤ą╗čÅ čüąŠą╗ąŠ.
 485:my_pedal.cpp  ****             if (g_boost > 0.001f)
 486:my_pedal.cpp  ****             {
 487:my_pedal.cpp  ****                 dry *= 1.0f + g_boost * 4.0f;
 488:my_pedal.cpp  ****                 if (dry > 1.0f) dry = 1.0f; else if (dry < -1.0f) dry = -1.0f;
 489:my_pedal.cpp  ****                 dry -= (dry * dry * dry) * (0.15f * g_boost); // ą╝čÅą│ą║ąŠąĄ ąŠą│čĆą░ąĮąĖčćąĄąĮąĖą
 490:my_pedal.cpp  ****             }
 491:my_pedal.cpp  **** 
 492:my_pedal.cpp  ****             amp.ProcessMono(dry);
 493:my_pedal.cpp  ****             float a = amp.GetAudioLeft() * g_gate;
 494:my_pedal.cpp  **** 
 495:my_pedal.cpp  ****             // 3-ą┐ąŠą╗ąŠčüąĮčŗą╣ EQ (ą┐čĆąŠąĘčĆą░čćąĄąĮ ą┐čĆąĖ ą┐ąŠą╗ąŠąČąĄąĮąĖčÅčģ 0.5/0.5/0.5).
 496:my_pedal.cpp  ****             a = eq3.Process(a, g_eqLow * 2.0f, g_eqMid * 2.0f, g_eqHigh * 2.0f);
 497:my_pedal.cpp  **** 
 498:my_pedal.cpp  ****             if (g_tremOn) a = tremolo.Process(a);
 499:my_pedal.cpp  **** 
 500:my_pedal.cpp  ****             // ą£ąŠą┤čāą╗čÅčåąĖčÅ (čéąŠą╗čīą║ąŠ ąĄčüą╗ąĖ ą▓ą║ą╗čÄčćąĄąĮą░ ą┐ąŠ ą╝ąĖą║čüčā) ŌĆö ą┐ąŠ
ARM GAS  /var/folders/cn/msls48b51jq2dpk8d4mt2d4w0000gn/T//cczoUJhV.s 			page 16


 501:my_pedal.cpp  ****             if (g_chorusMix > 0.001f)  { float w = chorus.Process(a);  a = a * (1.0f - g_chorusMix)
 502:my_pedal.cpp  ****             if (g_phaserMix > 0.001f)  { float w = phaser.Process(a);  a = a * (1.0f - g_phaserMix)
 503:my_pedal.cpp  ****             if (g_flangerMix > 0.001f) { float w = flanger.Process(a); a = a * (1.0f - g_flangerMix
 504:my_pedal.cpp  **** 
 505:my_pedal.cpp  ****             if (g_delayMix > 0.0001f || g_delayFb > 0.0001f)
 506:my_pedal.cpp  ****             {
 507:my_pedal.cpp  ****                 int rp = g_delayWrite - g_delaySamples;
 508:my_pedal.cpp  ****                 if (rp < 0) rp += DELAY_BUF;
 509:my_pedal.cpp  ****                 float dl = g_delayBuf[rp];
 510:my_pedal.cpp  ****                 g_delayLp += 0.45f * (dl - g_delayLp); // čéčæą╝ąĮąŠąĄ ┬½ą░ąĮą░ą╗ąŠą│ąŠą▓ąŠąĄ┬╗ čŹč
 511:my_pedal.cpp  ****                 g_delayBuf[g_delayWrite] = a + g_delayLp * g_delayFb;
 512:my_pedal.cpp  ****                 if (++g_delayWrite >= DELAY_BUF) g_delayWrite = 0;
 513:my_pedal.cpp  ****                 a = a + g_delayLp * g_delayMix;
 514:my_pedal.cpp  ****             }
 515:my_pedal.cpp  ****             if (g_revMix > 0.0001f)
 516:my_pedal.cpp  ****             {
 517:my_pedal.cpp  ****                 float w = reverb.Process(a);
 518:my_pedal.cpp  ****                 a = a * (1.0f - g_revMix) + w * g_revMix;
 519:my_pedal.cpp  ****             }
 520:my_pedal.cpp  ****             if (a > 1.0f) a = 1.0f; else if (a < -1.0f) a = -1.0f;
 521:my_pedal.cpp  **** 
 522:my_pedal.cpp  ****             // ąøąŻą¤ąĢąĀ (free-form) + ąĮąĄąĘą░ą▓ąĖčüąĖą╝čŗą╣ ą£ąĢąóąĀą×ąØą×ą£.
 523:my_pedal.cpp  ****             if (g_looperEngaged)
 524:my_pedal.cpp  ****             {
 525:my_pedal.cpp  ****                 // --- ą┐ąĄčéą╗čÅ: ąĘą░ą┐ąĖčüčī/ą╝ąĖą║čü. ąÉą▒čüąŠą╗čÄčéąĮčŗą╣ ąĖąĮą┤ąĄą║čü = g_loo
 526:my_pedal.cpp  ****                 bool running = (g_loopLen > 0) || (g_loopState[g_loopActive] == 1);
 527:my_pedal.cpp  ****                 if (running)
 528:my_pedal.cpp  ****                 {
 529:my_pedal.cpp  ****                     int abspos = g_loopStart + g_loopPos;
 530:my_pedal.cpp  ****                     if (abspos >= LOOP_LEN) abspos = LOOP_LEN - 1;
 531:my_pedal.cpp  ****                     float mixv = a;
 532:my_pedal.cpp  ****                     for (int t = 0; t < LOOP_TRACKS; t++)
 533:my_pedal.cpp  ****                         if (g_loopState[t] == 2) mixv += g_loop[abspos][t] * g_loopVol[t];
 534:my_pedal.cpp  ****                     if (g_loopState[g_loopActive] == 1)
 535:my_pedal.cpp  ****                     {
 536:my_pedal.cpp  ****                         g_loop[abspos][g_loopActive] = a; // ąĘą░ą┐ąĖčüčī čüčāčģąŠą│ąŠ
 537:my_pedal.cpp  ****                         // ą┐ąĄčĆą▓ą░čÅ ą┐ąĄčéą╗čÅ ą┐ąĖčłąĄčéčüčÅ čü ąĮą░ąČą░čéąĖčÅ ążąĪ; ą╗ąŠą▓ąĖą
 538:my_pedal.cpp  ****                         if (g_loopLen == 0 && !g_onsetFound && fabsf(in[0][i]) > LOOP_ARM_THRESH)
 539:my_pedal.cpp  ****                         {
 540:my_pedal.cpp  ****                             g_onsetFound = true;
 541:my_pedal.cpp  ****                             g_onsetPos = g_loopPos - LOOP_LEAD;
 542:my_pedal.cpp  ****                             if (g_onsetPos < 0) g_onsetPos = 0;
 543:my_pedal.cpp  ****                         }
 544:my_pedal.cpp  ****                     }
 545:my_pedal.cpp  ****                     a = mixv * 0.7f;
 546:my_pedal.cpp  ****                     int np = g_loopPos + 1;
 547:my_pedal.cpp  ****                     if (g_loopLen > 0) { if (np >= g_loopLen) np = 0; }
 548:my_pedal.cpp  ****                     else if (g_loopStart + np >= LOOP_LEN) np = g_loopPos; // ą┤ąŠčüčéąĖą│ą╗ąĖ ą║ąŠ
 549:my_pedal.cpp  ****                     g_loopPos = np;
 550:my_pedal.cpp  ****                 }
 551:my_pedal.cpp  ****                 // --- ą▒ąĖčé-ą│čĆąĖą┤ (ą║čĆčāčéąĖčéčüčÅ ą▓čüąĄą│ą┤ą░: ąĮčāąČąĄąĮ ą╝ąĄčéčĆąŠąĮąŠą╝č
 552:my_pedal.cpp  ****                 bool countingIn = (g_countInLeft > 0);
 553:my_pedal.cpp  ****                 bool beatTick = false;
 554:my_pedal.cpp  ****                 if (++g_metCounter >= g_beatSamples)
 555:my_pedal.cpp  ****                 {
 556:my_pedal.cpp  ****                     g_metCounter = 0;
 557:my_pedal.cpp  ****                     g_beatShow = (g_beatShow + 1) % g_beatsPerBar;
ARM GAS  /var/folders/cn/msls48b51jq2dpk8d4mt2d4w0000gn/T//cczoUJhV.s 			page 17


 558:my_pedal.cpp  ****                     g_clickAccent = (g_beatShow == 0);
 559:my_pedal.cpp  ****                     beatTick = true;
 560:my_pedal.cpp  ****                 }
 561:my_pedal.cpp  ****                 // count-in: ąĮą░ ą║ą░ąČą┤ąŠą╣ ą┤ąŠą╗ąĄ čāą╝ąĄąĮčīčłą░ąĄą╝; ąĮą░ ąĮčāą╗ąĄ ŌĆö čüčéą
 562:my_pedal.cpp  ****                 if (countingIn && beatTick)
 563:my_pedal.cpp  ****                 {
 564:my_pedal.cpp  ****                     if (--g_countInLeft == 0)
 565:my_pedal.cpp  ****                     {
 566:my_pedal.cpp  ****                         if (g_loopLen == 0) g_loopPos = 0;
 567:my_pedal.cpp  ****                         g_onsetFound = true; g_onsetPos = 0; // ąĘą░ą┐ąĖčüčī čü ┬½čĆą░ąĘ┬╗: ą▓ąŠą╗ą
 568:my_pedal.cpp  ****                         g_loopState[g_loopActive] = 1;
 569:my_pedal.cpp  ****                     }
 570:my_pedal.cpp  ****                 }
 571:my_pedal.cpp  ****                 // ą║ą╗ąĖą║ + LED ąĘą▓čāčćą░čé ą║ąŠą│ą┤ą░ ą╝ąĄčéčĆąŠąĮąŠą╝ ą▓ą║ą╗ ąśąøąś ąĖą┤čæčé c
 572:my_pedal.cpp  ****                 if (beatTick && (g_metOn || countingIn)) g_ledBeat = g_beatSamples / 3; // LED-ą┐čā
 573:my_pedal.cpp  ****                 if (beatTick && g_metOn) g_clickEnv = g_clickLen;                        // ąŚąÆąŻą
 574:my_pedal.cpp  ****                 if (g_clickEnv > 0)
 575:my_pedal.cpp  ****                 {
 576:my_pedal.cpp  ****                     float env = (float)g_clickEnv / (float)g_clickLen;
 577:my_pedal.cpp  ****                     float f = g_clickAccent ? 1600.0f : 1000.0f;
 578:my_pedal.cpp  ****                     g_clickPhase += f / g_sampleRate;
 579:my_pedal.cpp  ****                     if (g_clickPhase >= 1.0f) g_clickPhase -= 1.0f;
 580:my_pedal.cpp  ****                     a += sinf(6.2831853f * g_clickPhase) * env * g_clickVol * (g_clickAccent ? 1.0f
 581:my_pedal.cpp  ****                     g_clickEnv--;
 582:my_pedal.cpp  ****                 }
 583:my_pedal.cpp  ****                 if (a > 1.0f) a = 1.0f; else if (a < -1.0f) a = -1.0f;
 584:my_pedal.cpp  **** 
 585:my_pedal.cpp  ****                 // ą¢ąĖą▓ąŠą╣ čüą║ąŠčāą┐: ą┤ąĄčåąĖą╝ąĖčĆčāąĄą╝ ą▓čŗčģąŠą┤ ą▓ ą║ąŠą╗čīčåąŠ (ąŠčüčåąĖ
 586:my_pedal.cpp  ****                 if (++g_scopeDecim >= 4) { g_scopeDecim = 0; g_scope[g_scopeIdx] = a; g_scopeIdx = 
 587:my_pedal.cpp  ****             }
 588:my_pedal.cpp  **** 
 589:my_pedal.cpp  ****             out[0][i] = a;
 590:my_pedal.cpp  ****             out[1][i] = a;
 591:my_pedal.cpp  ****         }
 592:my_pedal.cpp  ****         else { out[0][i] = in[0][i]; out[1][i] = in[1][i]; }
 593:my_pedal.cpp  ****     }
 594:my_pedal.cpp  **** 
 595:my_pedal.cpp  ****     if (g_ledBeat > 0) { g_ledBeat -= (int)size; if (g_ledBeat < 0) g_ledBeat = 0; }
 596:my_pedal.cpp  ****     bool looperRec = false;
 597:my_pedal.cpp  ****     if (g_looperEngaged)
 598:my_pedal.cpp  ****         for (int t = 0; t < LOOP_TRACKS; t++) if (g_loopState[t] == 1) looperRec = true;
 599:my_pedal.cpp  ****     if (looperRec)
 600:my_pedal.cpp  ****         hardware.SetLed(0, 1.0f); // ┬½ąĘą░ą┐ąĖčüčī┬╗ ŌĆö čüą┐ą╗ąŠčłąĮąŠą╣ čüą▓ąĄčé
 601:my_pedal.cpp  ****     else if (g_looperEngaged && g_ledBeat > 0)
 602:my_pedal.cpp  ****         hardware.SetLed(0, g_clickAccent ? 1.0f : 0.45f); // ą╝ąĖą│ą░ąĮąĖąĄ ąĮą░ ą┤ąŠą╗čÄ (čÅčĆčćąĄ
 603:my_pedal.cpp  ****     else
 604:my_pedal.cpp  ****         hardware.SetLed(0, g_effectOn ? 1.0f : 0.0f);
 605:my_pedal.cpp  ****     hardware.SetLed(1, 0.0f); // LED ą╝ąĄąĮčÄ ą▓čŗą║ą╗čÄčćąĄąĮ (ą▒čŗą╗ čüą╗ąĖčłą║ąŠą╝ čÅčĆą║ąĖą╣)
 606:my_pedal.cpp  ****     hardware.UpdateLeds();
 607:my_pedal.cpp  **** 
 608:my_pedal.cpp  ****     g_cpuLoad = (System::GetUs() - t0) * 0.1f;
 609:my_pedal.cpp  **** }
 610:my_pedal.cpp  **** 
 611:my_pedal.cpp  **** // ą¤čĆąĖą╝ąĄąĮąĖčéčī ą┐čĆąĄčüąĄčé (čü čāčćčæčéąŠą╝ čüąŠčģčĆą░ąĮčæąĮąĮąŠą╣ ą┐čĆą░ą▓ą║ąĖ / custom).
 612:my_pedal.cpp  **** static void applySong(int idx)
 613:my_pedal.cpp  **** {
 614:my_pedal.cpp  ****     StoredPreset t; const char *b; const char *s;
ARM GAS  /var/folders/cn/msls48b51jq2dpk8d4mt2d4w0000gn/T//cczoUJhV.s 			page 18


 615:my_pedal.cpp  ****     getEffective(idx, t, b, s);
 616:my_pedal.cpp  ****     g_muteCountdown = g_switchMuteSamples;
 617:my_pedal.cpp  **** 
 618:my_pedal.cpp  ****     amp.SetParameterAsBinnedValue(P_MODEL, t.model);
 619:my_pedal.cpp  ****     amp.SetParameterAsBinnedValue(P_IR, t.ir);
 620:my_pedal.cpp  ****     amp.SetParameterAsMagnitude(P_GAIN, t.gain);
 621:my_pedal.cpp  ****     amp.SetParameterAsMagnitude(P_MIX, t.mix);
 622:my_pedal.cpp  ****     amp.SetParameterAsMagnitude(P_LEVEL, t.level);
 623:my_pedal.cpp  ****     amp.SetParameterAsMagnitude(P_TONE, t.tone);
 624:my_pedal.cpp  ****     g_revMix = t.revMix; g_delayMix = t.delayMix; g_delayFb = t.delayFb; g_tremDepth = t.tremDepth;
 625:my_pedal.cpp  **** 
 626:my_pedal.cpp  ****     float dms = t.delayTimeMs; if (dms > DELAY_MAX_MS) dms = DELAY_MAX_MS;
 627:my_pedal.cpp  ****     // ąĢčüą╗ąĖ ą▓čĆąĄą╝čÅ delay ą▓ ą┐čĆąĄčüąĄčéąĄ ąĮąĄ ąĘą░ą┤ą░ąĮąŠ ŌĆö ą┤ąĄčäąŠą╗čé 300 ą╝čü, čćč
 628:my_pedal.cpp  ****     // ą┤ą░ą▓ą░ą╗ čüą╗čŗčłąĖą╝ąŠąĄ čŹčģąŠ ąĮą░ ą╗čÄą▒ąŠą╝ ą┐čĆąĄčüąĄčéąĄ, ą░ ąĮąĄ ┬½ą│čĆąĄą▒čæąĮą║č
 629:my_pedal.cpp  ****     g_delayTimeMs = (dms > 0.0f) ? dms : 300.0f;
 630:my_pedal.cpp  ****     int ds = (int)(g_delayTimeMs * 0.001f * g_sampleRate);
 631:my_pedal.cpp  ****     if (ds < 1) ds = 1;
 632:my_pedal.cpp  ****     if (ds >= DELAY_BUF) ds = DELAY_BUF - 1;
 633:my_pedal.cpp  ****     g_delaySamples = ds;
 634:my_pedal.cpp  **** 
 635:my_pedal.cpp  ****     g_tremRate = t.tremRate > 0.0f ? t.tremRate : 5.0f;
 636:my_pedal.cpp  ****     tremolo.SetDepth(g_tremDepth);
 637:my_pedal.cpp  ****     tremolo.SetFreq(g_tremRate);
 638:my_pedal.cpp  ****     g_tremOn = g_tremDepth > 0.001f;
 639:my_pedal.cpp  **** 
 640:my_pedal.cpp  ****     // ąĀąĄą▓ąĄčĆą▒ decay/damp ąĖąĘ ą┐čĆąĄčüąĄčéą░.
 641:my_pedal.cpp  ****     g_revFb = t.revFb; g_revDamp = t.revDamp; reverb.fb = g_revFb; reverb.damp = g_revDamp;
 642:my_pedal.cpp  **** 
 643:my_pedal.cpp  ****     // EQ ąĖąĘ ą┐čĆąĄčüąĄčéą░.
 644:my_pedal.cpp  ****     g_eqLow = t.eqLow; g_eqMid = t.eqMid; g_eqHigh = t.eqHigh;
 645:my_pedal.cpp  **** 
 646:my_pedal.cpp  ****     // ą£ąŠą┤čāą╗čÅčåąĖčÅ ąĖąĘ ą┐čĆąĄčüąĄčéą░.
 647:my_pedal.cpp  ****     g_chorusMix = t.chorusMix; g_chorusRate = t.chorusRate; g_chorusDepth = t.chorusDepth;
 648:my_pedal.cpp  ****     g_phaserMix = t.phaserMix; g_phaserRate = t.phaserRate; g_phaserDepth = t.phaserDepth; g_phaser
 649:my_pedal.cpp  ****     g_flangerMix = t.flangerMix; g_flangerRate = t.flangerRate; g_flangerDepth = t.flangerDepth; g_
 650:my_pedal.cpp  ****     g_compAmt = t.compAmt; g_boost = t.boost;
 651:my_pedal.cpp  ****     applyModParams();
 652:my_pedal.cpp  **** 
 653:my_pedal.cpp  ****     g_knobRearm = true;
 654:my_pedal.cpp  **** }
 655:my_pedal.cpp  **** 
 656:my_pedal.cpp  **** // ą¤ąĄčĆąĄą║ą╗čÄčćąĖčéčī ąóą×ąØ ą▓ąĮčāčéčĆąĖ čéąĄą║čāčēąĄą╣ ą┐ąĄčüąĮąĖ (čäčāčéčüą▓ąĖčéčćąĖ +/-, čü
 657:my_pedal.cpp  **** static void gotoTone(int delta)
 658:my_pedal.cpp  **** {
 659:my_pedal.cpp  ****     if (g_currentSong < 0 || g_currentSong >= MAX_PRESETS_TOTAL) return;
 660:my_pedal.cpp  ****     int base = g_toneFirst[g_currentSong];
 661:my_pedal.cpp  ****     int cnt = g_toneCount[g_currentSong];
 662:my_pedal.cpp  ****     if (cnt < 1) cnt = 1;
 663:my_pedal.cpp  ****     int ti = g_currentSong - base + delta;
 664:my_pedal.cpp  ****     while (ti < 0) ti += cnt;
 665:my_pedal.cpp  ****     while (ti >= cnt) ti -= cnt;
 666:my_pedal.cpp  ****     g_currentSong = base + ti;
 667:my_pedal.cpp  ****     applySong(g_currentSong);
 668:my_pedal.cpp  **** }
 669:my_pedal.cpp  **** 
 670:my_pedal.cpp  **** // ą¤ąĄčĆąĄą║ą╗čÄčćąĖčéčī ą¤ąĢąĪąØą« (čŹąĮą║ąŠą┤ąĄčĆ), ą▓čüčéą░čæą╝ ąĮą░ ąĄčæ ą┐ąĄčĆą▓čŗą╣ čéąŠąĮ.
 671:my_pedal.cpp  **** static void gotoSong(int delta)
ARM GAS  /var/folders/cn/msls48b51jq2dpk8d4mt2d4w0000gn/T//cczoUJhV.s 			page 19


 672:my_pedal.cpp  **** {
 673:my_pedal.cpp  ****     if (g_songCount <= 0) return;
 674:my_pedal.cpp  ****     int no = g_songNo[g_currentSong] - 1 + delta;
 675:my_pedal.cpp  ****     while (no < 0) no += g_songCount;
 676:my_pedal.cpp  ****     while (no >= g_songCount) no -= g_songCount;
 677:my_pedal.cpp  ****     g_currentSong = g_songFirstList[no];
 678:my_pedal.cpp  ****     applySong(g_currentSong);
 679:my_pedal.cpp  **** }
 680:my_pedal.cpp  **** 
 681:my_pedal.cpp  **** // ąĪąĮčÅčéčī čéąĄą║čāčēąĖąĄ ąČąĖą▓čŗąĄ ą┐ą░čĆą░ą╝ąĄčéčĆčŗ ą▓ StoredPreset.
 682:my_pedal.cpp  **** static StoredPreset captureCurrent()
 683:my_pedal.cpp  **** {
 684:my_pedal.cpp  ****     StoredPreset t;
 685:my_pedal.cpp  ****     t.model = amp.GetParameterAsBinnedValue(P_MODEL);
 686:my_pedal.cpp  ****     t.ir = amp.GetParameterAsBinnedValue(P_IR);
 687:my_pedal.cpp  ****     t.gain = amp.GetParameterAsMagnitude(P_GAIN);
 688:my_pedal.cpp  ****     t.mix = amp.GetParameterAsMagnitude(P_MIX);
 689:my_pedal.cpp  ****     t.level = amp.GetParameterAsMagnitude(P_LEVEL);
 690:my_pedal.cpp  ****     t.tone = amp.GetParameterAsMagnitude(P_TONE);
 691:my_pedal.cpp  ****     t.revMix = g_revMix; t.delayMix = g_delayMix; t.delayFb = g_delayFb; t.tremDepth = g_tremDepth;
 692:my_pedal.cpp  ****     t.delayTimeMs = g_delayTimeMs; t.tremRate = g_tremRate; // čéąĄą┐ąĄčĆčī ą┐čĆą░ą▓čÅčéčüčÅ ą▓ Edi
 693:my_pedal.cpp  ****     // ąØąŠą▓čŗąĄ čŹčäčäąĄą║čéčŗ ŌĆö čüąĮąĖą╝ą░ąĄą╝ ąČąĖą▓čŗąĄ ąĘąĮą░čćąĄąĮąĖčÅ.
 694:my_pedal.cpp  ****     t.eqLow = g_eqLow; t.eqMid = g_eqMid; t.eqHigh = g_eqHigh;
 695:my_pedal.cpp  ****     t.revFb = g_revFb; t.revDamp = g_revDamp;
 696:my_pedal.cpp  ****     t.chorusMix = g_chorusMix; t.chorusRate = g_chorusRate; t.chorusDepth = g_chorusDepth;
 697:my_pedal.cpp  ****     t.phaserMix = g_phaserMix; t.phaserRate = g_phaserRate; t.phaserDepth = g_phaserDepth; t.phaser
 698:my_pedal.cpp  ****     t.flangerMix = g_flangerMix; t.flangerRate = g_flangerRate; t.flangerDepth = g_flangerDepth; t.
 699:my_pedal.cpp  ****     t.compAmt = g_compAmt; t.boost = g_boost;
 700:my_pedal.cpp  ****     return t;
 701:my_pedal.cpp  **** }
 702:my_pedal.cpp  **** 
 703:my_pedal.cpp  **** // ąĪąŠčģčĆą░ąĮąĖčéčī čéąĄą║čāčēąĖą╣ ą┐čĆąĄčüąĄčé (čäą░ą▒čĆąĖčćąĮčŗą╣ override ąĖą╗ąĖ custom-čüą╗ąŠ
 704:my_pedal.cpp  **** static void saveCurrentSong()
 705:my_pedal.cpp  **** {
 706:my_pedal.cpp  ****     SaveData &sd = storage.GetSettings();
 707:my_pedal.cpp  ****     StoredPreset t = captureCurrent();
 708:my_pedal.cpp  ****     if (g_currentSong < g_bankCount) { sd.ov[g_currentSong] = t; sd.ovUsed[g_currentSong] = 1; }
 709:my_pedal.cpp  ****     else { sd.custom[g_currentSong - g_bankCount].p = t; }
 710:my_pedal.cpp  ****     storage.Save();
 711:my_pedal.cpp  **** }
 712:my_pedal.cpp  **** 
 713:my_pedal.cpp  **** // ąĪą▒čĆąŠčü ąóąĢąÜąŻą®ąĢąōą× ą┐čĆąĄčüąĄčéą░ ą║ ąĘą░ą▓ąŠą┤čüą║ąŠą╝čā (Edit FX -> Default).
 714:my_pedal.cpp  **** static void resetCurrentPreset()
 715:my_pedal.cpp  **** {
 716:my_pedal.cpp  ****     SaveData &sd = storage.GetSettings();
 717:my_pedal.cpp  ****     if (g_currentSong < g_bankCount) sd.ovUsed[g_currentSong] = 0;
 718:my_pedal.cpp  ****     else sd.custom[g_currentSong - g_bankCount].p = presetToStored(kBlankCustom);
 719:my_pedal.cpp  ****     storage.Save();
 720:my_pedal.cpp  ****     applySong(g_currentSong);
 721:my_pedal.cpp  **** }
 722:my_pedal.cpp  **** 
 723:my_pedal.cpp  **** // ąöąŠą▒ą░ą▓ąĖčéčī ąĮąŠą▓čŗą╣ custom-ą┐čĆąĄčüąĄčé (ą║ą╗ąŠąĮ čéąĄą║čāčēąĄą│ąŠ ąĘą▓čāą║ą░ ą║ą░ą║ čüč
 724:my_pedal.cpp  **** static void addCustomPreset()
 725:my_pedal.cpp  **** {
 726:my_pedal.cpp  ****     SaveData &sd = storage.GetSettings();
 727:my_pedal.cpp  ****     if (sd.customCount >= MAX_CUSTOM) return;
 728:my_pedal.cpp  ****     CustomPreset &c = sd.custom[sd.customCount];
ARM GAS  /var/folders/cn/msls48b51jq2dpk8d4mt2d4w0000gn/T//cczoUJhV.s 			page 20


 729:my_pedal.cpp  ****     snprintf(c.name, sizeof(c.name), "Slot %d", sd.customCount + 1);
 730:my_pedal.cpp  ****     c.p = captureCurrent();
 731:my_pedal.cpp  ****     sd.customCount++;
 732:my_pedal.cpp  ****     storage.Save();
 733:my_pedal.cpp  ****     buildSongTable();
 734:my_pedal.cpp  ****     g_currentSong = g_bankCount + sd.customCount - 1;
 735:my_pedal.cpp  ****     applySong(g_currentSong);
 736:my_pedal.cpp  **** }
 737:my_pedal.cpp  **** 
 738:my_pedal.cpp  **** // ąŻą┤ą░ą╗ąĖčéčī ąóąĢąÜąŻą®ąśąÖ custom-ą┐čĆąĄčüąĄčé (ąĄčüą╗ąĖ čüąĄą╣čćą░čü ą▓čŗą▒čĆą░ąĮ custom-čüą
 739:my_pedal.cpp  **** static bool deleteCustomPreset()
 740:my_pedal.cpp  **** {
 741:my_pedal.cpp  ****     SaveData &sd = storage.GetSettings();
 742:my_pedal.cpp  ****     if (g_currentSong < g_bankCount) return false; // ą▓čŗą▒čĆą░ąĮ čäą░ą▒čĆąĖčćąĮčŗą╣ ŌĆö čāą┤ą░ą╗č
 743:my_pedal.cpp  ****     int ci = g_currentSong - g_bankCount;
 744:my_pedal.cpp  ****     if (ci < 0 || ci >= sd.customCount) return false;
 745:my_pedal.cpp  ****     for (int i = ci; i < sd.customCount - 1; i++) sd.custom[i] = sd.custom[i + 1]; // čüą┤ą▓ąĖą│
 746:my_pedal.cpp  ****     sd.customCount--;
 747:my_pedal.cpp  ****     storage.Save();
 748:my_pedal.cpp  ****     buildSongTable();
 749:my_pedal.cpp  ****     if (g_currentSong >= totalPresets()) g_currentSong = totalPresets() - 1;
 750:my_pedal.cpp  ****     if (g_currentSong < 0) g_currentSong = 0;
 751:my_pedal.cpp  ****     applySong(g_currentSong);
 752:my_pedal.cpp  ****     return true;
 753:my_pedal.cpp  **** }
 754:my_pedal.cpp  **** 
 755:my_pedal.cpp  **** // ążą░ą▒čĆąĖčćąĮčŗą╣ čüą▒čĆąŠčü ąÆąĪąĢąōą× (ą│ą╗ą░ą▓ąĮąŠąĄ ą╝ąĄąĮčÄ -> Default): čāą▒čĆą░čéčī ą▓čü
 756:my_pedal.cpp  **** static void factoryResetAll()
 757:my_pedal.cpp  **** {
 758:my_pedal.cpp  ****     SaveData &sd = storage.GetSettings();
 759:my_pedal.cpp  ****     for (int i = 0; i < g_bankCount; i++) sd.ovUsed[i] = 0;
 760:my_pedal.cpp  ****     sd.customCount = 0;
 761:my_pedal.cpp  ****     storage.Save();
 762:my_pedal.cpp  ****     buildSongTable();
 763:my_pedal.cpp  ****     if (g_currentSong >= totalPresets()) g_currentSong = 0;
 764:my_pedal.cpp  ****     applySong(g_currentSong);
 765:my_pedal.cpp  **** }
 766:my_pedal.cpp  **** 
 767:my_pedal.cpp  **** // ---- ąøčāą┐ąĄčĆ / ą╝ąĄčéčĆąŠąĮąŠą╝: čāą┐čĆą░ą▓ą╗ąĄąĮąĖąĄ ----
 768:my_pedal.cpp  **** // ą¤ąĄčĆąĄčüčćčæčé čĆą░ąĘą╝ąĄčĆąŠą▓ ą║ą╗ąĖą║ą░ ąĖąĘ BPM (ą╝ąĄčéčĆąŠąĮąŠą╝ ąĮąĄąĘą░ą▓ąĖčüąĖą╝čŗą╣; 
 769:my_pedal.cpp  **** static void recomputeTempo()
 770:my_pedal.cpp  **** {
 111              		.loc 5 770 1 is_stmt 1 view -0
 112              		.cfi_startproc
 113              		@ args = 0, pretend = 0, frame = 0
 114              		@ frame_needed = 0, uses_anonymous_args = 0
 115              		@ link register save eliminated.
 771:my_pedal.cpp  ****     if (g_bpm < 40) g_bpm = 40; if (g_bpm > 300) g_bpm = 300;
 116              		.loc 5 771 5 view .LVU9
 117              		.loc 5 771 15 is_stmt 0 view .LVU10
 118 0000 214B     		ldr	r3, .L12
 119 0002 1A68     		ldr	r2, [r3]
 120              		.loc 5 771 5 view .LVU11
 121 0004 272A     		cmp	r2, #39
 122 0006 01DC     		bgt	.L6
 123              		.loc 5 771 21 is_stmt 1 discriminator 1 view .LVU12
 124              		.loc 5 771 27 is_stmt 0 discriminator 1 view .LVU13
ARM GAS  /var/folders/cn/msls48b51jq2dpk8d4mt2d4w0000gn/T//cczoUJhV.s 			page 21


 125 0008 2822     		movs	r2, #40
 126 000a 1A60     		str	r2, [r3]
 127              	.L6:
 128              		.loc 5 771 33 is_stmt 1 discriminator 3 view .LVU14
 129              		.loc 5 771 43 is_stmt 0 discriminator 3 view .LVU15
 130 000c 1A68     		ldr	r2, [r3]
 131              		.loc 5 771 33 discriminator 3 view .LVU16
 132 000e B2F5967F 		cmp	r2, #300
 133 0012 02DD     		ble	.L7
 134              		.loc 5 771 50 is_stmt 1 discriminator 4 view .LVU17
 135              		.loc 5 771 56 is_stmt 0 discriminator 4 view .LVU18
 136 0014 4FF49672 		mov	r2, #300
 137 0018 1A60     		str	r2, [r3]
 138              	.L7:
 772:my_pedal.cpp  ****     if (g_beatsPerBar < 1) g_beatsPerBar = 1; if (g_beatsPerBar > 8) g_beatsPerBar = 8;
 139              		.loc 5 772 5 is_stmt 1 view .LVU19
 140              		.loc 5 772 23 is_stmt 0 view .LVU20
 141 001a 1C4A     		ldr	r2, .L12+4
 142 001c 1168     		ldr	r1, [r2]
 143              		.loc 5 772 5 view .LVU21
 144 001e 0029     		cmp	r1, #0
 145 0020 01DC     		bgt	.L8
 146              		.loc 5 772 28 is_stmt 1 discriminator 1 view .LVU22
 147              		.loc 5 772 42 is_stmt 0 discriminator 1 view .LVU23
 148 0022 0121     		movs	r1, #1
 149 0024 1160     		str	r1, [r2]
 150              	.L8:
 151              		.loc 5 772 47 is_stmt 1 discriminator 3 view .LVU24
 152              		.loc 5 772 65 is_stmt 0 discriminator 3 view .LVU25
 153 0026 1168     		ldr	r1, [r2]
 154              		.loc 5 772 47 discriminator 3 view .LVU26
 155 0028 0829     		cmp	r1, #8
 156 002a 01DD     		ble	.L9
 157              		.loc 5 772 70 is_stmt 1 discriminator 4 view .LVU27
 158              		.loc 5 772 84 is_stmt 0 discriminator 4 view .LVU28
 159 002c 0821     		movs	r1, #8
 160 002e 1160     		str	r1, [r2]
 161              	.L9:
 773:my_pedal.cpp  ****     float spb = (60.0f / (float)g_bpm) * g_sampleRate;
 162              		.loc 5 773 5 is_stmt 1 view .LVU29
 163              		.loc 5 773 26 is_stmt 0 view .LVU30
 164 0030 93ED007A 		vldr.32	s14, [r3]	@ int
 165              	.LVL3:
 774:my_pedal.cpp  ****     int bs = (int)(spb + 0.5f); if (bs < 1) bs = 1;
 166              		.loc 5 774 5 is_stmt 1 view .LVU31
 167              		.loc 5 774 24 is_stmt 0 view .LVU32
 168 0034 F6EE007A 		vmov.f32	s15, #5.0e-1
 773:my_pedal.cpp  ****     float spb = (60.0f / (float)g_bpm) * g_sampleRate;
 169              		.loc 5 773 24 view .LVU33
 170 0038 DFED155A 		vldr.32	s11, .L12+8
 773:my_pedal.cpp  ****     float spb = (60.0f / (float)g_bpm) * g_sampleRate;
 171              		.loc 5 773 26 view .LVU34
 172 003c B8EEC77A 		vcvt.f32.s32	s14, s14
 173              	.LVL4:
 773:my_pedal.cpp  ****     float spb = (60.0f / (float)g_bpm) * g_sampleRate;
 174              		.loc 5 773 40 view .LVU35
 175 0040 144B     		ldr	r3, .L12+12
ARM GAS  /var/folders/cn/msls48b51jq2dpk8d4mt2d4w0000gn/T//cczoUJhV.s 			page 22


 775:my_pedal.cpp  ****     g_beatSamples = bs;
 776:my_pedal.cpp  ****     g_clickLen = bs / 10; if (g_clickLen < 240) g_clickLen = 240; if (g_clickLen > 4000) g_clickLen
 176              		.loc 5 776 21 view .LVU36
 177 0042 154A     		ldr	r2, .L12+16
 774:my_pedal.cpp  ****     int bs = (int)(spb + 0.5f); if (bs < 1) bs = 1;
 178              		.loc 5 774 24 view .LVU37
 179 0044 D3ED006A 		vldr.32	s13, [r3]
 773:my_pedal.cpp  ****     int bs = (int)(spb + 0.5f); if (bs < 1) bs = 1;
 180              		.loc 5 773 24 view .LVU38
 181 0048 85EE876A 		vdiv.f32	s12, s11, s14
 182              		.loc 5 776 16 view .LVU39
 183 004c 1349     		ldr	r1, .L12+20
 775:my_pedal.cpp  ****     g_beatSamples = bs;
 184              		.loc 5 775 19 view .LVU40
 185 004e 1448     		ldr	r0, .L12+24
 774:my_pedal.cpp  ****     int bs = (int)(spb + 0.5f); if (bs < 1) bs = 1;
 186              		.loc 5 774 24 view .LVU41
 187 0050 E6EE267A 		vfma.f32	s15, s12, s13
 774:my_pedal.cpp  ****     int bs = (int)(spb + 0.5f); if (bs < 1) bs = 1;
 188              		.loc 5 774 9 view .LVU42
 189 0054 FDEEE77A 		vcvt.s32.f32	s15, s15
 190 0058 17EE903A 		vmov	r3, s15	@ int
 191              	.LVL5:
 774:my_pedal.cpp  ****     int bs = (int)(spb + 0.5f); if (bs < 1) bs = 1;
 192              		.loc 5 774 33 is_stmt 1 view .LVU43
 193 005c 012B     		cmp	r3, #1
 194 005e B8BF     		it	lt
 195 0060 0123     		movlt	r3, #1
 196              	.LVL6:
 775:my_pedal.cpp  ****     g_beatSamples = bs;
 197              		.loc 5 775 5 view .LVU44
 198              		.loc 5 776 21 is_stmt 0 view .LVU45
 199 0062 A2FB03C2 		umull	ip, r2, r2, r3
 775:my_pedal.cpp  ****     g_beatSamples = bs;
 200              		.loc 5 775 19 view .LVU46
 201 0066 0360     		str	r3, [r0]
 202              		.loc 5 776 5 is_stmt 1 view .LVU47
 203              		.loc 5 776 21 is_stmt 0 view .LVU48
 204 0068 D208     		lsrs	r2, r2, #3
 205              		.loc 5 776 16 view .LVU49
 206 006a 0A60     		str	r2, [r1]
 207              		.loc 5 776 27 is_stmt 1 view .LVU50
 208              		.loc 5 776 42 is_stmt 0 view .LVU51
 209 006c 0B68     		ldr	r3, [r1]
 210              	.LVL7:
 211              		.loc 5 776 27 view .LVU52
 212 006e EF2B     		cmp	r3, #239
 213              	.LVL8:
 214              		.loc 5 776 27 view .LVU53
 215 0070 01DC     		bgt	.L10
 216              		.loc 5 776 49 is_stmt 1 discriminator 1 view .LVU54
 217              		.loc 5 776 60 is_stmt 0 discriminator 1 view .LVU55
 218 0072 F023     		movs	r3, #240
 219 0074 0B60     		str	r3, [r1]
 220              	.L10:
 221              		.loc 5 776 67 is_stmt 1 discriminator 3 view .LVU56
 222              		.loc 5 776 82 is_stmt 0 discriminator 3 view .LVU57
ARM GAS  /var/folders/cn/msls48b51jq2dpk8d4mt2d4w0000gn/T//cczoUJhV.s 			page 23


 223 0076 0B68     		ldr	r3, [r1]
 224              		.loc 5 776 67 discriminator 3 view .LVU58
 225 0078 B3F57A6F 		cmp	r3, #4000
 226 007c 02DD     		ble	.L5
 227              		.loc 5 776 90 is_stmt 1 discriminator 4 view .LVU59
 228              		.loc 5 776 101 is_stmt 0 discriminator 4 view .LVU60
 229 007e 4FF47A63 		mov	r3, #4000
 230 0082 0B60     		str	r3, [r1]
 231              	.L5:
 777:my_pedal.cpp  **** }
 232              		.loc 5 777 1 view .LVU61
 233 0084 7047     		bx	lr
 234              	.L13:
 235 0086 00BF     		.align	2
 236              	.L12:
 237 0088 00000000 		.word	.LANCHOR0
 238 008c 00000000 		.word	.LANCHOR1
 239 0090 00007042 		.word	1114636288
 240 0094 00000000 		.word	.LANCHOR2
 241 0098 CDCCCCCC 		.word	-858993459
 242 009c 00000000 		.word	.LANCHOR4
 243 00a0 00000000 		.word	.LANCHOR3
 244              		.cfi_endproc
 245              	.LFE14394:
 247              		.section	.text._ZN7daisysp7FlangerD2Ev,"axG",%progbits,_ZN7daisysp7FlangerD5Ev,comdat
 248              		.align	1
 249              		.p2align 2,,3
 250              		.weak	_ZN7daisysp7FlangerD2Ev
 251              		.syntax unified
 252              		.thumb
 253              		.thumb_func
 255              	_ZN7daisysp7FlangerD2Ev:
 256              	.LVL9:
 257              	.LFB17095:
 258              		.file 6 "../VCOM-G1/GuitarPedal/DaisySP/Source/Effects/flanger.h"
   1:../VCOM-G1/GuitarPedal/DaisySP/Source/Effects/flanger.h **** /*
   2:../VCOM-G1/GuitarPedal/DaisySP/Source/Effects/flanger.h **** Copyright (c) 2020 Electrosmith, Corp
   3:../VCOM-G1/GuitarPedal/DaisySP/Source/Effects/flanger.h **** 
   4:../VCOM-G1/GuitarPedal/DaisySP/Source/Effects/flanger.h **** Use of this source code is governed by an MIT-style
   5:../VCOM-G1/GuitarPedal/DaisySP/Source/Effects/flanger.h **** license that can be found in the LICENSE file or at
   6:../VCOM-G1/GuitarPedal/DaisySP/Source/Effects/flanger.h **** https://opensource.org/licenses/MIT.
   7:../VCOM-G1/GuitarPedal/DaisySP/Source/Effects/flanger.h **** */
   8:../VCOM-G1/GuitarPedal/DaisySP/Source/Effects/flanger.h **** 
   9:../VCOM-G1/GuitarPedal/DaisySP/Source/Effects/flanger.h **** #pragma once
  10:../VCOM-G1/GuitarPedal/DaisySP/Source/Effects/flanger.h **** #ifndef DSY_FLANGER_H
  11:../VCOM-G1/GuitarPedal/DaisySP/Source/Effects/flanger.h **** #define DSY_FLANGER_H
  12:../VCOM-G1/GuitarPedal/DaisySP/Source/Effects/flanger.h **** #ifdef __cplusplus
  13:../VCOM-G1/GuitarPedal/DaisySP/Source/Effects/flanger.h **** 
  14:../VCOM-G1/GuitarPedal/DaisySP/Source/Effects/flanger.h **** #include <stdint.h>
  15:../VCOM-G1/GuitarPedal/DaisySP/Source/Effects/flanger.h **** #include "Utility/delayline.h"
  16:../VCOM-G1/GuitarPedal/DaisySP/Source/Effects/flanger.h **** 
  17:../VCOM-G1/GuitarPedal/DaisySP/Source/Effects/flanger.h **** /** @file flanger.h */
  18:../VCOM-G1/GuitarPedal/DaisySP/Source/Effects/flanger.h **** 
  19:../VCOM-G1/GuitarPedal/DaisySP/Source/Effects/flanger.h **** namespace daisysp
  20:../VCOM-G1/GuitarPedal/DaisySP/Source/Effects/flanger.h **** {
  21:../VCOM-G1/GuitarPedal/DaisySP/Source/Effects/flanger.h **** /** @brief Flanging Audio Effect 
  22:../VCOM-G1/GuitarPedal/DaisySP/Source/Effects/flanger.h ****  *
ARM GAS  /var/folders/cn/msls48b51jq2dpk8d4mt2d4w0000gn/T//cczoUJhV.s 			page 24


  23:../VCOM-G1/GuitarPedal/DaisySP/Source/Effects/flanger.h ****  * Generates a modulating phase shifted copy of a signal, and recombines
  24:../VCOM-G1/GuitarPedal/DaisySP/Source/Effects/flanger.h ****  * with the original to create a 'flanging' sound effect.
  25:../VCOM-G1/GuitarPedal/DaisySP/Source/Effects/flanger.h ****  */
  26:../VCOM-G1/GuitarPedal/DaisySP/Source/Effects/flanger.h **** class Flanger
 259              		.loc 6 26 7 is_stmt 1 view -0
 260              		.cfi_startproc
 261              		@ args = 0, pretend = 0, frame = 0
 262              		@ frame_needed = 0, uses_anonymous_args = 0
 263              		@ link register save eliminated.
 264              	.LBB710:
 265              	.LBI710:
 266              		.file 7 "../VCOM-G1/GuitarPedal/DaisySP/Source/Utility/delayline.h"
   1:../VCOM-G1/GuitarPedal/DaisySP/Source/Utility/delayline.h **** /*
   2:../VCOM-G1/GuitarPedal/DaisySP/Source/Utility/delayline.h **** Copyright (c) 2020 Electrosmith, Corp
   3:../VCOM-G1/GuitarPedal/DaisySP/Source/Utility/delayline.h **** 
   4:../VCOM-G1/GuitarPedal/DaisySP/Source/Utility/delayline.h **** Use of this source code is governed by an MIT-style
   5:../VCOM-G1/GuitarPedal/DaisySP/Source/Utility/delayline.h **** license that can be found in the LICENSE file or at
   6:../VCOM-G1/GuitarPedal/DaisySP/Source/Utility/delayline.h **** https://opensource.org/licenses/MIT.
   7:../VCOM-G1/GuitarPedal/DaisySP/Source/Utility/delayline.h **** */
   8:../VCOM-G1/GuitarPedal/DaisySP/Source/Utility/delayline.h **** 
   9:../VCOM-G1/GuitarPedal/DaisySP/Source/Utility/delayline.h **** #pragma once
  10:../VCOM-G1/GuitarPedal/DaisySP/Source/Utility/delayline.h **** #ifndef DSY_DELAY_H
  11:../VCOM-G1/GuitarPedal/DaisySP/Source/Utility/delayline.h **** #define DSY_DELAY_H
  12:../VCOM-G1/GuitarPedal/DaisySP/Source/Utility/delayline.h **** #include <stdlib.h>
  13:../VCOM-G1/GuitarPedal/DaisySP/Source/Utility/delayline.h **** #include <stdint.h>
  14:../VCOM-G1/GuitarPedal/DaisySP/Source/Utility/delayline.h **** namespace daisysp
  15:../VCOM-G1/GuitarPedal/DaisySP/Source/Utility/delayline.h **** {
  16:../VCOM-G1/GuitarPedal/DaisySP/Source/Utility/delayline.h **** /** Simple Delay line.
  17:../VCOM-G1/GuitarPedal/DaisySP/Source/Utility/delayline.h **** November 2019
  18:../VCOM-G1/GuitarPedal/DaisySP/Source/Utility/delayline.h **** 
  19:../VCOM-G1/GuitarPedal/DaisySP/Source/Utility/delayline.h **** Converted to Template December 2019
  20:../VCOM-G1/GuitarPedal/DaisySP/Source/Utility/delayline.h **** 
  21:../VCOM-G1/GuitarPedal/DaisySP/Source/Utility/delayline.h **** declaration example: (1 second of floats)
  22:../VCOM-G1/GuitarPedal/DaisySP/Source/Utility/delayline.h **** 
  23:../VCOM-G1/GuitarPedal/DaisySP/Source/Utility/delayline.h **** DelayLine<float, SAMPLE_RATE> del;
  24:../VCOM-G1/GuitarPedal/DaisySP/Source/Utility/delayline.h **** 
  25:../VCOM-G1/GuitarPedal/DaisySP/Source/Utility/delayline.h **** By: shensley
  26:../VCOM-G1/GuitarPedal/DaisySP/Source/Utility/delayline.h **** */
  27:../VCOM-G1/GuitarPedal/DaisySP/Source/Utility/delayline.h **** template <typename T, size_t max_size>
  28:../VCOM-G1/GuitarPedal/DaisySP/Source/Utility/delayline.h **** class DelayLine
  29:../VCOM-G1/GuitarPedal/DaisySP/Source/Utility/delayline.h **** {
  30:../VCOM-G1/GuitarPedal/DaisySP/Source/Utility/delayline.h ****   public:
  31:../VCOM-G1/GuitarPedal/DaisySP/Source/Utility/delayline.h ****     DelayLine() {}
  32:../VCOM-G1/GuitarPedal/DaisySP/Source/Utility/delayline.h ****     ~DelayLine() {}
 267              		.loc 7 32 5 view .LVU63
 268              		.loc 7 32 5 is_stmt 0 view .LVU64
 269              	.LBE710:
 270              		.loc 6 26 7 view .LVU65
 271 0000 7047     		bx	lr
 272              		.cfi_endproc
 273              	.LFE17095:
 275              		.weak	_ZN7daisysp7FlangerD1Ev
 276              		.thumb_set _ZN7daisysp7FlangerD1Ev,_ZN7daisysp7FlangerD2Ev
 277 0002 00BF     		.section	.text._ZL14applyModParamsv,"ax",%progbits
 278              		.align	1
 279              		.p2align 2,,3
 280              		.syntax unified
ARM GAS  /var/folders/cn/msls48b51jq2dpk8d4mt2d4w0000gn/T//cczoUJhV.s 			page 25


 281              		.thumb
 282              		.thumb_func
 284              	_ZL14applyModParamsv:
 285              	.LFB14375:
 206:my_pedal.cpp  ****     chorus.SetLfoFreq(0.1f + g_chorusRate * 4.0f);
 286              		.loc 5 206 1 is_stmt 1 view -0
 287              		.cfi_startproc
 288              		@ args = 0, pretend = 0, frame = 0
 289              		@ frame_needed = 0, uses_anonymous_args = 0
 207:my_pedal.cpp  ****     chorus.SetLfoDepth(g_chorusDepth);
 290              		.loc 5 207 5 view .LVU67
 206:my_pedal.cpp  ****     chorus.SetLfoFreq(0.1f + g_chorusRate * 4.0f);
 291              		.loc 5 206 1 is_stmt 0 view .LVU68
 292 0000 38B5     		push	{r3, r4, r5, lr}
 293              		.cfi_def_cfa_offset 16
 294              		.cfi_offset 3, -16
 295              		.cfi_offset 4, -12
 296              		.cfi_offset 5, -8
 297              		.cfi_offset 14, -4
 298 0002 2DED028B 		vpush.64	{d8}
 299              		.cfi_def_cfa_offset 24
 300              		.cfi_offset 80, -24
 301              		.cfi_offset 81, -20
 207:my_pedal.cpp  ****     chorus.SetLfoDepth(g_chorusDepth);
 302              		.loc 5 207 22 view .LVU69
 303 0006 9FED298A 		vldr.32	s16, .L17
 304 000a F1EE008A 		vmov.f32	s17, #4.0e+0
 207:my_pedal.cpp  ****     chorus.SetLfoDepth(g_chorusDepth);
 305              		.loc 5 207 30 view .LVU70
 306 000e 284B     		ldr	r3, .L17+4
 207:my_pedal.cpp  ****     chorus.SetLfoDepth(g_chorusDepth);
 307              		.loc 5 207 22 view .LVU71
 308 0010 B0EE480A 		vmov.f32	s0, s16
 309 0014 2748     		ldr	r0, .L17+8
 207:my_pedal.cpp  ****     chorus.SetLfoDepth(g_chorusDepth);
 310              		.loc 5 207 30 view .LVU72
 311 0016 D3ED007A 		vldr.32	s15, [r3]
 210:my_pedal.cpp  ****     phaser.SetLfoDepth(g_phaserDepth);
 312              		.loc 5 210 22 view .LVU73
 313 001a 274C     		ldr	r4, .L17+12
 207:my_pedal.cpp  ****     chorus.SetLfoDepth(g_chorusDepth);
 314              		.loc 5 207 22 view .LVU74
 315 001c A7EEA80A 		vfma.f32	s0, s15, s17
 214:my_pedal.cpp  ****     flanger.SetLfoDepth(g_flangerDepth);
 316              		.loc 5 214 23 view .LVU75
 317 0020 264D     		ldr	r5, .L17+16
 207:my_pedal.cpp  ****     chorus.SetLfoDepth(g_chorusDepth);
 318              		.loc 5 207 22 view .LVU76
 319 0022 FFF7FEFF 		bl	_ZN7daisysp6Chorus10SetLfoFreqEf
 320              	.LVL10:
 208:my_pedal.cpp  ****     chorus.SetFeedback(0.2f);
 321              		.loc 5 208 5 is_stmt 1 view .LVU77
 208:my_pedal.cpp  ****     chorus.SetFeedback(0.2f);
 322              		.loc 5 208 23 is_stmt 0 view .LVU78
 323 0026 264B     		ldr	r3, .L17+20
 324 0028 2248     		ldr	r0, .L17+8
 325 002a 93ED000A 		vldr.32	s0, [r3]
ARM GAS  /var/folders/cn/msls48b51jq2dpk8d4mt2d4w0000gn/T//cczoUJhV.s 			page 26


 326 002e FFF7FEFF 		bl	_ZN7daisysp6Chorus11SetLfoDepthEf
 327              	.LVL11:
 209:my_pedal.cpp  ****     phaser.SetLfoFreq(0.1f + g_phaserRate * 4.0f);
 328              		.loc 5 209 5 is_stmt 1 view .LVU79
 209:my_pedal.cpp  ****     phaser.SetLfoFreq(0.1f + g_phaserRate * 4.0f);
 329              		.loc 5 209 23 is_stmt 0 view .LVU80
 330 0032 9FED240A 		vldr.32	s0, .L17+24
 331 0036 1F48     		ldr	r0, .L17+8
 332 0038 FFF7FEFF 		bl	_ZN7daisysp6Chorus11SetFeedbackEf
 333              	.LVL12:
 210:my_pedal.cpp  ****     phaser.SetLfoDepth(g_phaserDepth);
 334              		.loc 5 210 5 is_stmt 1 view .LVU81
 210:my_pedal.cpp  ****     phaser.SetLfoDepth(g_phaserDepth);
 335              		.loc 5 210 30 is_stmt 0 view .LVU82
 336 003c 224B     		ldr	r3, .L17+28
 210:my_pedal.cpp  ****     phaser.SetLfoDepth(g_phaserDepth);
 337              		.loc 5 210 22 view .LVU83
 338 003e B0EE480A 		vmov.f32	s0, s16
 339 0042 2046     		mov	r0, r4
 210:my_pedal.cpp  ****     phaser.SetLfoDepth(g_phaserDepth);
 340              		.loc 5 210 30 view .LVU84
 341 0044 D3ED007A 		vldr.32	s15, [r3]
 210:my_pedal.cpp  ****     phaser.SetLfoDepth(g_phaserDepth);
 342              		.loc 5 210 22 view .LVU85
 343 0048 A7EEA80A 		vfma.f32	s0, s15, s17
 344 004c FFF7FEFF 		bl	_ZN7daisysp6Phaser10SetLfoFreqEf
 345              	.LVL13:
 211:my_pedal.cpp  ****     phaser.SetFeedback(g_phaserFb);
 346              		.loc 5 211 5 is_stmt 1 view .LVU86
 211:my_pedal.cpp  ****     phaser.SetFeedback(g_phaserFb);
 347              		.loc 5 211 23 is_stmt 0 view .LVU87
 348 0050 1E4B     		ldr	r3, .L17+32
 349 0052 2046     		mov	r0, r4
 350 0054 93ED000A 		vldr.32	s0, [r3]
 351 0058 FFF7FEFF 		bl	_ZN7daisysp6Phaser11SetLfoDepthEf
 352              	.LVL14:
 212:my_pedal.cpp  ****     phaser.SetFreq(500.0f);
 353              		.loc 5 212 5 is_stmt 1 view .LVU88
 212:my_pedal.cpp  ****     phaser.SetFreq(500.0f);
 354              		.loc 5 212 23 is_stmt 0 view .LVU89
 355 005c 1C4B     		ldr	r3, .L17+36
 356 005e 2046     		mov	r0, r4
 357 0060 93ED000A 		vldr.32	s0, [r3]
 358 0064 FFF7FEFF 		bl	_ZN7daisysp6Phaser11SetFeedbackEf
 359              	.LVL15:
 213:my_pedal.cpp  ****     flanger.SetLfoFreq(0.05f + g_flangerRate * 2.0f);
 360              		.loc 5 213 5 is_stmt 1 view .LVU90
 213:my_pedal.cpp  ****     flanger.SetLfoFreq(0.05f + g_flangerRate * 2.0f);
 361              		.loc 5 213 19 is_stmt 0 view .LVU91
 362 0068 2046     		mov	r0, r4
 363 006a 9FED1A0A 		vldr.32	s0, .L17+40
 364 006e FFF7FEFF 		bl	_ZN7daisysp6Phaser7SetFreqEf
 365              	.LVL16:
 214:my_pedal.cpp  ****     flanger.SetLfoDepth(g_flangerDepth);
 366              		.loc 5 214 5 is_stmt 1 view .LVU92
 214:my_pedal.cpp  ****     flanger.SetLfoDepth(g_flangerDepth);
 367              		.loc 5 214 32 is_stmt 0 view .LVU93
ARM GAS  /var/folders/cn/msls48b51jq2dpk8d4mt2d4w0000gn/T//cczoUJhV.s 			page 27


 368 0072 194B     		ldr	r3, .L17+44
 214:my_pedal.cpp  ****     flanger.SetLfoDepth(g_flangerDepth);
 369              		.loc 5 214 23 view .LVU94
 370 0074 F0EE007A 		vmov.f32	s15, #2.0e+0
 371 0078 9FED180A 		vldr.32	s0, .L17+48
 214:my_pedal.cpp  ****     flanger.SetLfoDepth(g_flangerDepth);
 372              		.loc 5 214 32 view .LVU95
 373 007c 93ED007A 		vldr.32	s14, [r3]
 214:my_pedal.cpp  ****     flanger.SetLfoDepth(g_flangerDepth);
 374              		.loc 5 214 23 view .LVU96
 375 0080 2846     		mov	r0, r5
 376 0082 A7EE270A 		vfma.f32	s0, s14, s15
 377 0086 FFF7FEFF 		bl	_ZN7daisysp7Flanger10SetLfoFreqEf
 378              	.LVL17:
 215:my_pedal.cpp  ****     flanger.SetFeedback(g_flangerFb);
 379              		.loc 5 215 5 is_stmt 1 view .LVU97
 215:my_pedal.cpp  ****     flanger.SetFeedback(g_flangerFb);
 380              		.loc 5 215 24 is_stmt 0 view .LVU98
 381 008a 154B     		ldr	r3, .L17+52
 382 008c 2846     		mov	r0, r5
 383 008e 93ED000A 		vldr.32	s0, [r3]
 384 0092 FFF7FEFF 		bl	_ZN7daisysp7Flanger11SetLfoDepthEf
 385              	.LVL18:
 216:my_pedal.cpp  **** }
 386              		.loc 5 216 5 is_stmt 1 view .LVU99
 216:my_pedal.cpp  **** }
 387              		.loc 5 216 24 is_stmt 0 view .LVU100
 388 0096 134B     		ldr	r3, .L17+56
 389 0098 2846     		mov	r0, r5
 390 009a 93ED000A 		vldr.32	s0, [r3]
 217:my_pedal.cpp  **** 
 391              		.loc 5 217 1 view .LVU101
 392 009e BDEC028B 		vldm	sp!, {d8}
 393              		.cfi_restore 80
 394              		.cfi_restore 81
 395              		.cfi_def_cfa_offset 16
 396 00a2 BDE83840 		pop	{r3, r4, r5, lr}
 397              		.cfi_restore 14
 398              		.cfi_restore 5
 399              		.cfi_restore 4
 400              		.cfi_restore 3
 401              		.cfi_def_cfa_offset 0
 216:my_pedal.cpp  **** }
 402              		.loc 5 216 24 view .LVU102
 403 00a6 FFF7FEBF 		b	_ZN7daisysp7Flanger11SetFeedbackEf
 404              	.LVL19:
 405              	.L18:
 406 00aa 00BF     		.align	2
 407              	.L17:
 408 00ac CDCCCC3D 		.word	1036831949
 409 00b0 00000000 		.word	.LANCHOR5
 410 00b4 ACE80801 		.word	_ZL6chorus
 411 00b8 24BB0701 		.word	_ZL6phaser
 412 00bc 00000000 		.word	.LANCHOR11
 413 00c0 00000000 		.word	.LANCHOR6
 414 00c4 CDCC4C3E 		.word	1045220557
 415 00c8 00000000 		.word	.LANCHOR7
ARM GAS  /var/folders/cn/msls48b51jq2dpk8d4mt2d4w0000gn/T//cczoUJhV.s 			page 28


 416 00cc 00000000 		.word	.LANCHOR8
 417 00d0 00000000 		.word	.LANCHOR9
 418 00d4 0000FA43 		.word	1140457472
 419 00d8 00000000 		.word	.LANCHOR10
 420 00dc CDCC4C3D 		.word	1028443341
 421 00e0 00000000 		.word	.LANCHOR12
 422 00e4 00000000 		.word	.LANCHOR13
 423              		.cfi_endproc
 424              	.LFE14375:
 426              		.section	.text._ZL14captureCurrentv,"ax",%progbits
 427              		.align	1
 428              		.p2align 2,,3
 429              		.syntax unified
 430              		.thumb
 431              		.thumb_func
 433              	_ZL14captureCurrentv:
 434              	.LVL20:
 435              	.LFB14388:
 683:my_pedal.cpp  ****     StoredPreset t;
 436              		.loc 5 683 1 is_stmt 1 view -0
 437              		.cfi_startproc
 438              		@ args = 0, pretend = 0, frame = 0
 439              		@ frame_needed = 0, uses_anonymous_args = 0
 684:my_pedal.cpp  ****     t.model = amp.GetParameterAsBinnedValue(P_MODEL);
 440              		.loc 5 684 5 view .LVU104
 685:my_pedal.cpp  ****     t.ir = amp.GetParameterAsBinnedValue(P_IR);
 441              		.loc 5 685 5 view .LVU105
 683:my_pedal.cpp  ****     StoredPreset t;
 442              		.loc 5 683 1 is_stmt 0 view .LVU106
 443 0000 38B5     		push	{r3, r4, r5, lr}
 444              		.cfi_def_cfa_offset 16
 445              		.cfi_offset 3, -16
 446              		.cfi_offset 4, -12
 447              		.cfi_offset 5, -8
 448              		.cfi_offset 14, -4
 685:my_pedal.cpp  ****     t.ir = amp.GetParameterAsBinnedValue(P_IR);
 449              		.loc 5 685 44 view .LVU107
 450 0002 384D     		ldr	r5, .L21
 683:my_pedal.cpp  ****     StoredPreset t;
 451              		.loc 5 683 1 view .LVU108
 452 0004 0446     		mov	r4, r0
 685:my_pedal.cpp  ****     t.ir = amp.GetParameterAsBinnedValue(P_IR);
 453              		.loc 5 685 44 view .LVU109
 454 0006 0421     		movs	r1, #4
 455 0008 2846     		mov	r0, r5
 456              	.LVL21:
 685:my_pedal.cpp  ****     t.ir = amp.GetParameterAsBinnedValue(P_IR);
 457              		.loc 5 685 44 view .LVU110
 458 000a FFF7FEFF 		bl	_ZNK10bkshepherd16BaseEffectModule25GetParameterAsBinnedValueEi
 459              	.LVL22:
 460 000e 0346     		mov	r3, r0
 686:my_pedal.cpp  ****     t.gain = amp.GetParameterAsMagnitude(P_GAIN);
 461              		.loc 5 686 41 view .LVU111
 462 0010 0521     		movs	r1, #5
 463 0012 2846     		mov	r0, r5
 685:my_pedal.cpp  ****     t.ir = amp.GetParameterAsBinnedValue(P_IR);
 464              		.loc 5 685 13 view .LVU112
ARM GAS  /var/folders/cn/msls48b51jq2dpk8d4mt2d4w0000gn/T//cczoUJhV.s 			page 29


 465 0014 2360     		str	r3, [r4]
 686:my_pedal.cpp  ****     t.gain = amp.GetParameterAsMagnitude(P_GAIN);
 466              		.loc 5 686 5 is_stmt 1 view .LVU113
 686:my_pedal.cpp  ****     t.gain = amp.GetParameterAsMagnitude(P_GAIN);
 467              		.loc 5 686 41 is_stmt 0 view .LVU114
 468 0016 FFF7FEFF 		bl	_ZNK10bkshepherd16BaseEffectModule25GetParameterAsBinnedValueEi
 469              	.LVL23:
 470 001a 0346     		mov	r3, r0
 687:my_pedal.cpp  ****     t.mix = amp.GetParameterAsMagnitude(P_MIX);
 471              		.loc 5 687 41 view .LVU115
 472 001c 0021     		movs	r1, #0
 473 001e 2846     		mov	r0, r5
 686:my_pedal.cpp  ****     t.gain = amp.GetParameterAsMagnitude(P_GAIN);
 474              		.loc 5 686 10 view .LVU116
 475 0020 6360     		str	r3, [r4, #4]
 687:my_pedal.cpp  ****     t.mix = amp.GetParameterAsMagnitude(P_MIX);
 476              		.loc 5 687 5 is_stmt 1 view .LVU117
 687:my_pedal.cpp  ****     t.mix = amp.GetParameterAsMagnitude(P_MIX);
 477              		.loc 5 687 41 is_stmt 0 view .LVU118
 478 0022 FFF7FEFF 		bl	_ZNK10bkshepherd16BaseEffectModule23GetParameterAsMagnitudeEi
 479              	.LVL24:
 688:my_pedal.cpp  ****     t.level = amp.GetParameterAsMagnitude(P_LEVEL);
 480              		.loc 5 688 40 view .LVU119
 481 0026 2846     		mov	r0, r5
 482 0028 0121     		movs	r1, #1
 687:my_pedal.cpp  ****     t.mix = amp.GetParameterAsMagnitude(P_MIX);
 483              		.loc 5 687 12 view .LVU120
 484 002a 84ED020A 		vstr.32	s0, [r4, #8]
 688:my_pedal.cpp  ****     t.level = amp.GetParameterAsMagnitude(P_LEVEL);
 485              		.loc 5 688 5 is_stmt 1 view .LVU121
 688:my_pedal.cpp  ****     t.level = amp.GetParameterAsMagnitude(P_LEVEL);
 486              		.loc 5 688 40 is_stmt 0 view .LVU122
 487 002e FFF7FEFF 		bl	_ZNK10bkshepherd16BaseEffectModule23GetParameterAsMagnitudeEi
 488              	.LVL25:
 689:my_pedal.cpp  ****     t.tone = amp.GetParameterAsMagnitude(P_TONE);
 489              		.loc 5 689 42 view .LVU123
 490 0032 2846     		mov	r0, r5
 491 0034 0221     		movs	r1, #2
 688:my_pedal.cpp  ****     t.level = amp.GetParameterAsMagnitude(P_LEVEL);
 492              		.loc 5 688 11 view .LVU124
 493 0036 84ED030A 		vstr.32	s0, [r4, #12]
 689:my_pedal.cpp  ****     t.tone = amp.GetParameterAsMagnitude(P_TONE);
 494              		.loc 5 689 5 is_stmt 1 view .LVU125
 689:my_pedal.cpp  ****     t.tone = amp.GetParameterAsMagnitude(P_TONE);
 495              		.loc 5 689 42 is_stmt 0 view .LVU126
 496 003a FFF7FEFF 		bl	_ZNK10bkshepherd16BaseEffectModule23GetParameterAsMagnitudeEi
 497              	.LVL26:
 690:my_pedal.cpp  ****     t.revMix = g_revMix; t.delayMix = g_delayMix; t.delayFb = g_delayFb; t.tremDepth = g_tremDepth;
 498              		.loc 5 690 41 view .LVU127
 499 003e 2846     		mov	r0, r5
 500 0040 0321     		movs	r1, #3
 689:my_pedal.cpp  ****     t.tone = amp.GetParameterAsMagnitude(P_TONE);
 501              		.loc 5 689 13 view .LVU128
 502 0042 84ED040A 		vstr.32	s0, [r4, #16]
 690:my_pedal.cpp  ****     t.revMix = g_revMix; t.delayMix = g_delayMix; t.delayFb = g_delayFb; t.tremDepth = g_tremDepth;
 503              		.loc 5 690 5 is_stmt 1 view .LVU129
 690:my_pedal.cpp  ****     t.revMix = g_revMix; t.delayMix = g_delayMix; t.delayFb = g_delayFb; t.tremDepth = g_tremDepth;
ARM GAS  /var/folders/cn/msls48b51jq2dpk8d4mt2d4w0000gn/T//cczoUJhV.s 			page 30


 504              		.loc 5 690 41 is_stmt 0 view .LVU130
 505 0046 FFF7FEFF 		bl	_ZNK10bkshepherd16BaseEffectModule23GetParameterAsMagnitudeEi
 506              	.LVL27:
 691:my_pedal.cpp  ****     t.delayTimeMs = g_delayTimeMs; t.tremRate = g_tremRate; // čéąĄą┐ąĄčĆčī ą┐čĆą░ą▓čÅčéčüčÅ ą▓ Edi
 507              		.loc 5 691 14 view .LVU131
 508 004a 274B     		ldr	r3, .L21+4
 691:my_pedal.cpp  ****     t.delayTimeMs = g_delayTimeMs; t.tremRate = g_tremRate; // čéąĄą┐ąĄčĆčī ą┐čĆą░ą▓čÅčéčüčÅ ą▓ Edi
 509              		.loc 5 691 37 view .LVU132
 510 004c 2749     		ldr	r1, .L21+8
 691:my_pedal.cpp  ****     t.delayTimeMs = g_delayTimeMs; t.tremRate = g_tremRate; // čéąĄą┐ąĄčĆčī ą┐čĆą░ą▓čÅčéčüčÅ ą▓ Edi
 511              		.loc 5 691 14 view .LVU133
 512 004e 1B68     		ldr	r3, [r3]	@ float
 691:my_pedal.cpp  ****     t.delayTimeMs = g_delayTimeMs; t.tremRate = g_tremRate; // čéąĄą┐ąĄčĆčī ą┐čĆą░ą▓čÅčéčüčÅ ą▓ Edi
 513              		.loc 5 691 61 view .LVU134
 514 0050 274A     		ldr	r2, .L21+12
 691:my_pedal.cpp  ****     t.delayTimeMs = g_delayTimeMs; t.tremRate = g_tremRate; // čéąĄą┐ąĄčĆčī ą┐čĆą░ą▓čÅčéčüčÅ ą▓ Edi
 515              		.loc 5 691 14 view .LVU135
 516 0052 A361     		str	r3, [r4, #24]	@ float
 691:my_pedal.cpp  ****     t.delayTimeMs = g_delayTimeMs; t.tremRate = g_tremRate; // čéąĄą┐ąĄčĆčī ą┐čĆą░ą▓čÅčéčüčÅ ą▓ Edi
 517              		.loc 5 691 86 view .LVU136
 518 0054 274B     		ldr	r3, .L21+16
 691:my_pedal.cpp  ****     t.delayTimeMs = g_delayTimeMs; t.tremRate = g_tremRate; // čéąĄą┐ąĄčĆčī ą┐čĆą░ą▓čÅčéčüčÅ ą▓ Edi
 519              		.loc 5 691 37 view .LVU137
 520 0056 0868     		ldr	r0, [r1]	@ float
 691:my_pedal.cpp  ****     t.delayTimeMs = g_delayTimeMs; t.tremRate = g_tremRate; // čéąĄą┐ąĄčĆčī ą┐čĆą░ą▓čÅčéčüčÅ ą▓ Edi
 521              		.loc 5 691 61 view .LVU138
 522 0058 1168     		ldr	r1, [r2]	@ float
 691:my_pedal.cpp  ****     t.delayTimeMs = g_delayTimeMs; t.tremRate = g_tremRate; // čéąĄą┐ąĄčĆčī ą┐čĆą░ą▓čÅčéčüčÅ ą▓ Edi
 523              		.loc 5 691 86 view .LVU139
 524 005a 1B68     		ldr	r3, [r3]	@ float
 692:my_pedal.cpp  ****     // ąØąŠą▓čŗąĄ čŹčäčäąĄą║čéčŗ ŌĆö čüąĮąĖą╝ą░ąĄą╝ ąČąĖą▓čŗąĄ ąĘąĮą░čćąĄąĮąĖčÅ.
 525              		.loc 5 692 19 view .LVU140
 526 005c 264A     		ldr	r2, .L21+20
 691:my_pedal.cpp  ****     t.delayTimeMs = g_delayTimeMs; t.tremRate = g_tremRate; // čéąĄą┐ąĄčĆčī ą┐čĆą░ą▓čÅčéčüčÅ ą▓ Edi
 527              		.loc 5 691 86 view .LVU141
 528 005e A362     		str	r3, [r4, #40]	@ float
 692:my_pedal.cpp  ****     // ąØąŠą▓čŗąĄ čŹčäčäąĄą║čéčŗ ŌĆö čüąĮąĖą╝ą░ąĄą╝ ąČąĖą▓čŗąĄ ąĘąĮą░čćąĄąĮąĖčÅ.
 529              		.loc 5 692 47 view .LVU142
 530 0060 264B     		ldr	r3, .L21+24
 691:my_pedal.cpp  ****     t.delayTimeMs = g_delayTimeMs; t.tremRate = g_tremRate; // čéąĄą┐ąĄčĆčī ą┐čĆą░ą▓čÅčéčüčÅ ą▓ Edi
 531              		.loc 5 691 37 view .LVU143
 532 0062 E061     		str	r0, [r4, #28]	@ float
 692:my_pedal.cpp  ****     // ąØąŠą▓čŗąĄ čŹčäčäąĄą║čéčŗ ŌĆö čüąĮąĖą╝ą░ąĄą╝ ąČąĖą▓čŗąĄ ąĘąĮą░čćąĄąĮąĖčÅ.
 533              		.loc 5 692 19 view .LVU144
 534 0064 1068     		ldr	r0, [r2]	@ float
 692:my_pedal.cpp  ****     // ąØąŠą▓čŗąĄ čŹčäčäąĄą║čéčŗ ŌĆö čüąĮąĖą╝ą░ąĄą╝ ąČąĖą▓čŗąĄ ąĘąĮą░čćąĄąĮąĖčÅ.
 535              		.loc 5 692 47 view .LVU145
 536 0066 1B68     		ldr	r3, [r3]	@ float
 691:my_pedal.cpp  ****     t.delayTimeMs = g_delayTimeMs; t.tremRate = g_tremRate; // čéąĄą┐ąĄčĆčī ą┐čĆą░ą▓čÅčéčüčÅ ą▓ Edi
 537              		.loc 5 691 61 view .LVU146
 538 0068 6162     		str	r1, [r4, #36]	@ float
 692:my_pedal.cpp  ****     // ąØąŠą▓čŗąĄ čŹčäčäąĄą║čéčŗ ŌĆö čüąĮąĖą╝ą░ąĄą╝ ąČąĖą▓čŗąĄ ąĘąĮą░čćąĄąĮąĖčÅ.
 539              		.loc 5 692 47 view .LVU147
 540 006a E362     		str	r3, [r4, #44]	@ float
 694:my_pedal.cpp  ****     t.revFb = g_revFb; t.revDamp = g_revDamp;
 541              		.loc 5 694 13 view .LVU148
 542 006c 2449     		ldr	r1, .L21+28
ARM GAS  /var/folders/cn/msls48b51jq2dpk8d4mt2d4w0000gn/T//cczoUJhV.s 			page 31


 694:my_pedal.cpp  ****     t.revFb = g_revFb; t.revDamp = g_revDamp;
 543              		.loc 5 694 32 view .LVU149
 544 006e 254A     		ldr	r2, .L21+32
 694:my_pedal.cpp  ****     t.revFb = g_revFb; t.revDamp = g_revDamp;
 545              		.loc 5 694 52 view .LVU150
 546 0070 254B     		ldr	r3, .L21+36
 692:my_pedal.cpp  ****     // ąØąŠą▓čŗąĄ čŹčäčäąĄą║čéčŗ ŌĆö čüąĮąĖą╝ą░ąĄą╝ ąČąĖą▓čŗąĄ ąĘąĮą░čćąĄąĮąĖčÅ.
 547              		.loc 5 692 19 view .LVU151
 548 0072 2062     		str	r0, [r4, #32]	@ float
 694:my_pedal.cpp  ****     t.revFb = g_revFb; t.revDamp = g_revDamp;
 549              		.loc 5 694 13 view .LVU152
 550 0074 0868     		ldr	r0, [r1]	@ float
 694:my_pedal.cpp  ****     t.revFb = g_revFb; t.revDamp = g_revDamp;
 551              		.loc 5 694 32 view .LVU153
 552 0076 1168     		ldr	r1, [r2]	@ float
 694:my_pedal.cpp  ****     t.revFb = g_revFb; t.revDamp = g_revDamp;
 553              		.loc 5 694 52 view .LVU154
 554 0078 1B68     		ldr	r3, [r3]	@ float
 695:my_pedal.cpp  ****     t.chorusMix = g_chorusMix; t.chorusRate = g_chorusRate; t.chorusDepth = g_chorusDepth;
 555              		.loc 5 695 13 view .LVU155
 556 007a 244A     		ldr	r2, .L21+40
 694:my_pedal.cpp  ****     t.revFb = g_revFb; t.revDamp = g_revDamp;
 557              		.loc 5 694 52 view .LVU156
 558 007c A363     		str	r3, [r4, #56]	@ float
 695:my_pedal.cpp  ****     t.chorusMix = g_chorusMix; t.chorusRate = g_chorusRate; t.chorusDepth = g_chorusDepth;
 559              		.loc 5 695 34 view .LVU157
 560 007e 244B     		ldr	r3, .L21+44
 694:my_pedal.cpp  ****     t.revFb = g_revFb; t.revDamp = g_revDamp;
 561              		.loc 5 694 13 view .LVU158
 562 0080 2063     		str	r0, [r4, #48]	@ float
 694:my_pedal.cpp  ****     t.revFb = g_revFb; t.revDamp = g_revDamp;
 563              		.loc 5 694 32 view .LVU159
 564 0082 6163     		str	r1, [r4, #52]	@ float
 695:my_pedal.cpp  ****     t.chorusMix = g_chorusMix; t.chorusRate = g_chorusRate; t.chorusDepth = g_chorusDepth;
 565              		.loc 5 695 13 view .LVU160
 566 0084 1068     		ldr	r0, [r2]	@ float
 696:my_pedal.cpp  ****     t.phaserMix = g_phaserMix; t.phaserRate = g_phaserRate; t.phaserDepth = g_phaserDepth; t.phaser
 567              		.loc 5 696 17 view .LVU161
 568 0086 2349     		ldr	r1, .L21+48
 695:my_pedal.cpp  ****     t.chorusMix = g_chorusMix; t.chorusRate = g_chorusRate; t.chorusDepth = g_chorusDepth;
 569              		.loc 5 695 34 view .LVU162
 570 0088 1B68     		ldr	r3, [r3]	@ float
 696:my_pedal.cpp  ****     t.phaserMix = g_phaserMix; t.phaserRate = g_phaserRate; t.phaserDepth = g_phaserDepth; t.phaser
 571              		.loc 5 696 45 view .LVU163
 572 008a 234A     		ldr	r2, .L21+52
 695:my_pedal.cpp  ****     t.chorusMix = g_chorusMix; t.chorusRate = g_chorusRate; t.chorusDepth = g_chorusDepth;
 573              		.loc 5 695 13 view .LVU164
 574 008c E063     		str	r0, [r4, #60]	@ float
 695:my_pedal.cpp  ****     t.chorusMix = g_chorusMix; t.chorusRate = g_chorusRate; t.chorusDepth = g_chorusDepth;
 575              		.loc 5 695 34 view .LVU165
 576 008e 2364     		str	r3, [r4, #64]	@ float
 696:my_pedal.cpp  ****     t.phaserMix = g_phaserMix; t.phaserRate = g_phaserRate; t.phaserDepth = g_phaserDepth; t.phaser
 577              		.loc 5 696 17 view .LVU166
 578 0090 0868     		ldr	r0, [r1]	@ float
 696:my_pedal.cpp  ****     t.phaserMix = g_phaserMix; t.phaserRate = g_phaserRate; t.phaserDepth = g_phaserDepth; t.phaser
 579              		.loc 5 696 75 view .LVU167
 580 0092 224B     		ldr	r3, .L21+56
ARM GAS  /var/folders/cn/msls48b51jq2dpk8d4mt2d4w0000gn/T//cczoUJhV.s 			page 32


 696:my_pedal.cpp  ****     t.phaserMix = g_phaserMix; t.phaserRate = g_phaserRate; t.phaserDepth = g_phaserDepth; t.phaser
 581              		.loc 5 696 45 view .LVU168
 582 0094 1168     		ldr	r1, [r2]	@ float
 696:my_pedal.cpp  ****     t.phaserMix = g_phaserMix; t.phaserRate = g_phaserRate; t.phaserDepth = g_phaserDepth; t.phaser
 583              		.loc 5 696 75 view .LVU169
 584 0096 1B68     		ldr	r3, [r3]	@ float
 696:my_pedal.cpp  ****     t.phaserMix = g_phaserMix; t.phaserRate = g_phaserRate; t.phaserDepth = g_phaserDepth; t.phaser
 585              		.loc 5 696 45 view .LVU170
 586 0098 A164     		str	r1, [r4, #72]	@ float
 697:my_pedal.cpp  ****     t.flangerMix = g_flangerMix; t.flangerRate = g_flangerRate; t.flangerDepth = g_flangerDepth; t.
 587              		.loc 5 697 17 view .LVU171
 588 009a 214A     		ldr	r2, .L21+60
 697:my_pedal.cpp  ****     t.flangerMix = g_flangerMix; t.flangerRate = g_flangerRate; t.flangerDepth = g_flangerDepth; t.
 589              		.loc 5 697 45 view .LVU172
 590 009c 2149     		ldr	r1, .L21+64
 696:my_pedal.cpp  ****     t.phaserMix = g_phaserMix; t.phaserRate = g_phaserRate; t.phaserDepth = g_phaserDepth; t.phaser
 591              		.loc 5 696 17 view .LVU173
 592 009e 6064     		str	r0, [r4, #68]	@ float
 696:my_pedal.cpp  ****     t.phaserMix = g_phaserMix; t.phaserRate = g_phaserRate; t.phaserDepth = g_phaserDepth; t.phaser
 593              		.loc 5 696 75 view .LVU174
 594 00a0 E364     		str	r3, [r4, #76]	@ float
 697:my_pedal.cpp  ****     t.flangerMix = g_flangerMix; t.flangerRate = g_flangerRate; t.flangerDepth = g_flangerDepth; t.
 595              		.loc 5 697 17 view .LVU175
 596 00a2 1068     		ldr	r0, [r2]	@ float
 697:my_pedal.cpp  ****     t.flangerMix = g_flangerMix; t.flangerRate = g_flangerRate; t.flangerDepth = g_flangerDepth; t.
 597              		.loc 5 697 103 view .LVU176
 598 00a4 204B     		ldr	r3, .L21+68
 697:my_pedal.cpp  ****     t.flangerMix = g_flangerMix; t.flangerRate = g_flangerRate; t.flangerDepth = g_flangerDepth; t.
 599              		.loc 5 697 45 view .LVU177
 600 00a6 0968     		ldr	r1, [r1]	@ float
 697:my_pedal.cpp  ****     t.flangerMix = g_flangerMix; t.flangerRate = g_flangerRate; t.flangerDepth = g_flangerDepth; t.
 601              		.loc 5 697 75 view .LVU178
 602 00a8 204A     		ldr	r2, .L21+72
 697:my_pedal.cpp  ****     t.flangerMix = g_flangerMix; t.flangerRate = g_flangerRate; t.flangerDepth = g_flangerDepth; t.
 603              		.loc 5 697 17 view .LVU179
 604 00aa 2065     		str	r0, [r4, #80]	@ float
 690:my_pedal.cpp  ****     t.revMix = g_revMix; t.delayMix = g_delayMix; t.delayFb = g_delayFb; t.tremDepth = g_tremDepth;
 605              		.loc 5 690 12 view .LVU180
 606 00ac 84ED050A 		vstr.32	s0, [r4, #20]
 691:my_pedal.cpp  ****     t.delayTimeMs = g_delayTimeMs; t.tremRate = g_tremRate; // čéąĄą┐ąĄčĆčī ą┐čĆą░ą▓čÅčéčüčÅ ą▓ Edi
 607              		.loc 5 691 5 is_stmt 1 view .LVU181
 691:my_pedal.cpp  ****     t.delayTimeMs = g_delayTimeMs; t.tremRate = g_tremRate; // čéąĄą┐ąĄčĆčī ą┐čĆą░ą▓čÅčéčüčÅ ą▓ Edi
 608              		.loc 5 691 26 view .LVU182
 691:my_pedal.cpp  ****     t.delayTimeMs = g_delayTimeMs; t.tremRate = g_tremRate; // čéąĄą┐ąĄčĆčī ą┐čĆą░ą▓čÅčéčüčÅ ą▓ Edi
 609              		.loc 5 691 51 view .LVU183
 691:my_pedal.cpp  ****     t.delayTimeMs = g_delayTimeMs; t.tremRate = g_tremRate; // čéąĄą┐ąĄčĆčī ą┐čĆą░ą▓čÅčéčüčÅ ą▓ Edi
 610              		.loc 5 691 74 view .LVU184
 692:my_pedal.cpp  ****     // ąØąŠą▓čŗąĄ čŹčäčäąĄą║čéčŗ ŌĆö čüąĮąĖą╝ą░ąĄą╝ ąČąĖą▓čŗąĄ ąĘąĮą░čćąĄąĮąĖčÅ.
 611              		.loc 5 692 5 view .LVU185
 692:my_pedal.cpp  ****     // ąØąŠą▓čŗąĄ čŹčäčäąĄą║čéčŗ ŌĆö čüąĮąĖą╝ą░ąĄą╝ ąČąĖą▓čŗąĄ ąĘąĮą░čćąĄąĮąĖčÅ.
 612              		.loc 5 692 36 view .LVU186
 694:my_pedal.cpp  ****     t.revFb = g_revFb; t.revDamp = g_revDamp;
 613              		.loc 5 694 5 view .LVU187
 694:my_pedal.cpp  ****     t.revFb = g_revFb; t.revDamp = g_revDamp;
 614              		.loc 5 694 24 view .LVU188
 694:my_pedal.cpp  ****     t.revFb = g_revFb; t.revDamp = g_revDamp;
 615              		.loc 5 694 43 view .LVU189
ARM GAS  /var/folders/cn/msls48b51jq2dpk8d4mt2d4w0000gn/T//cczoUJhV.s 			page 33


 695:my_pedal.cpp  ****     t.chorusMix = g_chorusMix; t.chorusRate = g_chorusRate; t.chorusDepth = g_chorusDepth;
 616              		.loc 5 695 5 view .LVU190
 695:my_pedal.cpp  ****     t.chorusMix = g_chorusMix; t.chorusRate = g_chorusRate; t.chorusDepth = g_chorusDepth;
 617              		.loc 5 695 24 view .LVU191
 696:my_pedal.cpp  ****     t.phaserMix = g_phaserMix; t.phaserRate = g_phaserRate; t.phaserDepth = g_phaserDepth; t.phaser
 618              		.loc 5 696 5 view .LVU192
 696:my_pedal.cpp  ****     t.phaserMix = g_phaserMix; t.phaserRate = g_phaserRate; t.phaserDepth = g_phaserDepth; t.phaser
 619              		.loc 5 696 32 view .LVU193
 696:my_pedal.cpp  ****     t.phaserMix = g_phaserMix; t.phaserRate = g_phaserRate; t.phaserDepth = g_phaserDepth; t.phaser
 620              		.loc 5 696 61 view .LVU194
 697:my_pedal.cpp  ****     t.flangerMix = g_flangerMix; t.flangerRate = g_flangerRate; t.flangerDepth = g_flangerDepth; t.
 621              		.loc 5 697 5 view .LVU195
 697:my_pedal.cpp  ****     t.flangerMix = g_flangerMix; t.flangerRate = g_flangerRate; t.flangerDepth = g_flangerDepth; t.
 622              		.loc 5 697 32 view .LVU196
 697:my_pedal.cpp  ****     t.flangerMix = g_flangerMix; t.flangerRate = g_flangerRate; t.flangerDepth = g_flangerDepth; t.
 623              		.loc 5 697 45 is_stmt 0 view .LVU197
 624 00b0 6165     		str	r1, [r4, #84]	@ float
 697:my_pedal.cpp  ****     t.flangerMix = g_flangerMix; t.flangerRate = g_flangerRate; t.flangerDepth = g_flangerDepth; t.
 625              		.loc 5 697 61 is_stmt 1 view .LVU198
 697:my_pedal.cpp  ****     t.flangerMix = g_flangerMix; t.flangerRate = g_flangerRate; t.flangerDepth = g_flangerDepth; t.
 626              		.loc 5 697 75 is_stmt 0 view .LVU199
 627 00b2 1268     		ldr	r2, [r2]	@ float
 697:my_pedal.cpp  ****     t.flangerMix = g_flangerMix; t.flangerRate = g_flangerRate; t.flangerDepth = g_flangerDepth; t.
 628              		.loc 5 697 103 view .LVU200
 629 00b4 1B68     		ldr	r3, [r3]	@ float
 698:my_pedal.cpp  ****     t.compAmt = g_compAmt; t.boost = g_boost;
 630              		.loc 5 698 18 view .LVU201
 631 00b6 1E48     		ldr	r0, .L21+76
 697:my_pedal.cpp  ****     t.flangerMix = g_flangerMix; t.flangerRate = g_flangerRate; t.flangerDepth = g_flangerDepth; t.
 632              		.loc 5 697 103 view .LVU202
 633 00b8 E365     		str	r3, [r4, #92]	@ float
 698:my_pedal.cpp  ****     t.compAmt = g_compAmt; t.boost = g_boost;
 634              		.loc 5 698 48 view .LVU203
 635 00ba 1E49     		ldr	r1, .L21+80
 698:my_pedal.cpp  ****     t.compAmt = g_compAmt; t.boost = g_boost;
 636              		.loc 5 698 80 view .LVU204
 637 00bc 1E4B     		ldr	r3, .L21+84
 698:my_pedal.cpp  ****     t.compAmt = g_compAmt; t.boost = g_boost;
 638              		.loc 5 698 18 view .LVU205
 639 00be 0068     		ldr	r0, [r0]	@ float
 697:my_pedal.cpp  ****     t.flangerMix = g_flangerMix; t.flangerRate = g_flangerRate; t.flangerDepth = g_flangerDepth; t.
 640              		.loc 5 697 75 view .LVU206
 641 00c0 A265     		str	r2, [r4, #88]	@ float
 697:my_pedal.cpp  ****     t.flangerMix = g_flangerMix; t.flangerRate = g_flangerRate; t.flangerDepth = g_flangerDepth; t.
 642              		.loc 5 697 92 is_stmt 1 view .LVU207
 698:my_pedal.cpp  ****     t.compAmt = g_compAmt; t.boost = g_boost;
 643              		.loc 5 698 5 view .LVU208
 698:my_pedal.cpp  ****     t.compAmt = g_compAmt; t.boost = g_boost;
 644              		.loc 5 698 48 is_stmt 0 view .LVU209
 645 00c2 0968     		ldr	r1, [r1]	@ float
 698:my_pedal.cpp  ****     t.compAmt = g_compAmt; t.boost = g_boost;
 646              		.loc 5 698 110 view .LVU210
 647 00c4 1D4A     		ldr	r2, .L21+88
 698:my_pedal.cpp  ****     t.compAmt = g_compAmt; t.boost = g_boost;
 648              		.loc 5 698 80 view .LVU211
 649 00c6 1B68     		ldr	r3, [r3]	@ float
 698:my_pedal.cpp  ****     t.compAmt = g_compAmt; t.boost = g_boost;
ARM GAS  /var/folders/cn/msls48b51jq2dpk8d4mt2d4w0000gn/T//cczoUJhV.s 			page 34


 650              		.loc 5 698 48 view .LVU212
 651 00c8 6166     		str	r1, [r4, #100]	@ float
 698:my_pedal.cpp  ****     t.compAmt = g_compAmt; t.boost = g_boost;
 652              		.loc 5 698 80 view .LVU213
 653 00ca A366     		str	r3, [r4, #104]	@ float
 698:my_pedal.cpp  ****     t.compAmt = g_compAmt; t.boost = g_boost;
 654              		.loc 5 698 110 view .LVU214
 655 00cc 1168     		ldr	r1, [r2]	@ float
 699:my_pedal.cpp  ****     return t;
 656              		.loc 5 699 36 view .LVU215
 657 00ce 1C4B     		ldr	r3, .L21+92
 699:my_pedal.cpp  ****     return t;
 658              		.loc 5 699 15 view .LVU216
 659 00d0 1C4A     		ldr	r2, .L21+96
 698:my_pedal.cpp  ****     t.compAmt = g_compAmt; t.boost = g_boost;
 660              		.loc 5 698 18 view .LVU217
 661 00d2 2066     		str	r0, [r4, #96]	@ float
 698:my_pedal.cpp  ****     t.compAmt = g_compAmt; t.boost = g_boost;
 662              		.loc 5 698 34 is_stmt 1 view .LVU218
 698:my_pedal.cpp  ****     t.compAmt = g_compAmt; t.boost = g_boost;
 663              		.loc 5 698 65 view .LVU219
 698:my_pedal.cpp  ****     t.compAmt = g_compAmt; t.boost = g_boost;
 664              		.loc 5 698 98 view .LVU220
 701:my_pedal.cpp  **** 
 665              		.loc 5 701 1 is_stmt 0 view .LVU221
 666 00d4 2046     		mov	r0, r4
 699:my_pedal.cpp  ****     return t;
 667              		.loc 5 699 15 view .LVU222
 668 00d6 1268     		ldr	r2, [r2]	@ float
 699:my_pedal.cpp  ****     return t;
 669              		.loc 5 699 36 view .LVU223
 670 00d8 1B68     		ldr	r3, [r3]	@ float
 698:my_pedal.cpp  ****     t.compAmt = g_compAmt; t.boost = g_boost;
 671              		.loc 5 698 110 view .LVU224
 672 00da E166     		str	r1, [r4, #108]	@ float
 699:my_pedal.cpp  ****     return t;
 673              		.loc 5 699 5 is_stmt 1 view .LVU225
 699:my_pedal.cpp  ****     return t;
 674              		.loc 5 699 15 is_stmt 0 view .LVU226
 675 00dc 2267     		str	r2, [r4, #112]	@ float
 699:my_pedal.cpp  ****     return t;
 676              		.loc 5 699 28 is_stmt 1 view .LVU227
 699:my_pedal.cpp  ****     return t;
 677              		.loc 5 699 36 is_stmt 0 view .LVU228
 678 00de 6367     		str	r3, [r4, #116]	@ float
 700:my_pedal.cpp  **** }
 679              		.loc 5 700 5 is_stmt 1 view .LVU229
 701:my_pedal.cpp  **** 
 680              		.loc 5 701 1 is_stmt 0 view .LVU230
 681 00e0 38BD     		pop	{r3, r4, r5, pc}
 682              	.LVL28:
 683              	.L22:
 701:my_pedal.cpp  **** 
 684              		.loc 5 701 1 view .LVU231
 685 00e2 00BF     		.align	2
 686              	.L21:
 687 00e4 00000000 		.word	.LANCHOR14
ARM GAS  /var/folders/cn/msls48b51jq2dpk8d4mt2d4w0000gn/T//cczoUJhV.s 			page 35


 688 00e8 00000000 		.word	.LANCHOR15
 689 00ec 00000000 		.word	.LANCHOR16
 690 00f0 00000000 		.word	.LANCHOR17
 691 00f4 00000000 		.word	.LANCHOR18
 692 00f8 00000000 		.word	.LANCHOR19
 693 00fc 00000000 		.word	.LANCHOR20
 694 0100 00000000 		.word	.LANCHOR21
 695 0104 00000000 		.word	.LANCHOR22
 696 0108 00000000 		.word	.LANCHOR23
 697 010c 00000000 		.word	.LANCHOR24
 698 0110 00000000 		.word	.LANCHOR25
 699 0114 00000000 		.word	.LANCHOR26
 700 0118 00000000 		.word	.LANCHOR5
 701 011c 00000000 		.word	.LANCHOR6
 702 0120 00000000 		.word	.LANCHOR27
 703 0124 00000000 		.word	.LANCHOR7
 704 0128 00000000 		.word	.LANCHOR9
 705 012c 00000000 		.word	.LANCHOR8
 706 0130 00000000 		.word	.LANCHOR28
 707 0134 00000000 		.word	.LANCHOR10
 708 0138 00000000 		.word	.LANCHOR12
 709 013c 00000000 		.word	.LANCHOR13
 710 0140 00000000 		.word	.LANCHOR30
 711 0144 00000000 		.word	.LANCHOR29
 712              		.cfi_endproc
 713              	.LFE14388:
 715              		.section	.rodata._ZL12getEffectiveiR12StoredPresetRPKcS3_.str1.4,"aMS",%progbits,1
 716              		.align	2
 717              	.LC3:
 718 0000 43757374 		.ascii	"Custom\000"
 718      6F6D00
 719              		.section	.text._ZL12getEffectiveiR12StoredPresetRPKcS3_,"ax",%progbits
 720              		.align	1
 721              		.p2align 2,,3
 722              		.syntax unified
 723              		.thumb
 724              		.thumb_func
 726              	_ZL12getEffectiveiR12StoredPresetRPKcS3_:
 727              	.LVL29:
 728              	.LFB14381:
 353:my_pedal.cpp  ****     SaveData &sd = storage.GetSettings();
 729              		.loc 5 353 1 is_stmt 1 view -0
 730              		.cfi_startproc
 731              		@ args = 0, pretend = 0, frame = 0
 732              		@ frame_needed = 0, uses_anonymous_args = 0
 353:my_pedal.cpp  ****     SaveData &sd = storage.GetSettings();
 733              		.loc 5 353 1 is_stmt 0 view .LVU233
 734 0000 F8B5     		push	{r3, r4, r5, r6, r7, lr}
 735              		.cfi_def_cfa_offset 24
 736              		.cfi_offset 3, -24
 737              		.cfi_offset 4, -20
 738              		.cfi_offset 5, -16
 739              		.cfi_offset 6, -12
 740              		.cfi_offset 7, -8
 741              		.cfi_offset 14, -4
 742              	.LBB723:
 355:my_pedal.cpp  ****     {
ARM GAS  /var/folders/cn/msls48b51jq2dpk8d4mt2d4w0000gn/T//cczoUJhV.s 			page 36


 743              		.loc 5 355 13 view .LVU234
 744 0002 684C     		ldr	r4, .L49
 745              	.LBE723:
 353:my_pedal.cpp  ****     SaveData &sd = storage.GetSettings();
 746              		.loc 5 353 1 view .LVU235
 747 0004 8C46     		mov	ip, r1
 354:my_pedal.cpp  ****     if (idx < g_bankCount)
 748              		.loc 5 354 5 is_stmt 1 view .LVU236
 749              	.LVL30:
 355:my_pedal.cpp  ****     {
 750              		.loc 5 355 5 view .LVU237
 751              	.LBB729:
 355:my_pedal.cpp  ****     {
 752              		.loc 5 355 13 is_stmt 0 view .LVU238
 753 0006 2468     		ldr	r4, [r4]
 355:my_pedal.cpp  ****     {
 754              		.loc 5 355 5 view .LVU239
 755 0008 8442     		cmp	r4, r0
 756 000a 1CDD     		ble	.L24
 357:my_pedal.cpp  ****         out = sd.ovUsed[idx] ? sd.ov[idx] : presetToStored(g_bank[idx]);
 757              		.loc 5 357 9 is_stmt 1 view .LVU240
 357:my_pedal.cpp  ****         out = sd.ovUsed[idx] ? sd.ov[idx] : presetToStored(g_bank[idx]);
 758              		.loc 5 357 26 is_stmt 0 view .LVU241
 759 000c 6649     		ldr	r1, .L49+4
 760              	.LVL31:
 358:my_pedal.cpp  ****     }
 761              		.loc 5 358 28 view .LVU242
 762 000e 674D     		ldr	r5, .L49+8
 357:my_pedal.cpp  ****         out = sd.ovUsed[idx] ? sd.ov[idx] : presetToStored(g_bank[idx]);
 763              		.loc 5 357 26 view .LVU243
 764 0010 0C68     		ldr	r4, [r1]
 765 0012 6421     		movs	r1, #100
 766 0014 00FB01F1 		mul	r1, r0, r1
 357:my_pedal.cpp  ****         out = sd.ovUsed[idx] ? sd.ov[idx] : presetToStored(g_bank[idx]);
 767              		.loc 5 357 14 view .LVU244
 768 0018 6658     		ldr	r6, [r4, r1]
 769 001a 1660     		str	r6, [r2]
 357:my_pedal.cpp  ****         out = sd.ovUsed[idx] ? sd.ov[idx] : presetToStored(g_bank[idx]);
 770              		.loc 5 357 34 is_stmt 1 view .LVU245
 357:my_pedal.cpp  ****         out = sd.ovUsed[idx] ? sd.ov[idx] : presetToStored(g_bank[idx]);
 771              		.loc 5 357 26 is_stmt 0 view .LVU246
 772 001c 6218     		adds	r2, r4, r1
 773              	.LVL32:
 358:my_pedal.cpp  ****     }
 774              		.loc 5 358 28 view .LVU247
 775 001e 05F58051 		add	r1, r5, #4096
 357:my_pedal.cpp  ****         out = sd.ovUsed[idx] ? sd.ov[idx] : presetToStored(g_bank[idx]);
 776              		.loc 5 357 53 view .LVU248
 777 0022 5468     		ldr	r4, [r2, #4]
 358:my_pedal.cpp  ****     }
 778              		.loc 5 358 28 view .LVU249
 779 0024 0144     		add	r1, r1, r0
 357:my_pedal.cpp  ****         out = sd.ovUsed[idx] ? sd.ov[idx] : presetToStored(g_bank[idx]);
 780              		.loc 5 357 39 view .LVU250
 781 0026 1C60     		str	r4, [r3]
 358:my_pedal.cpp  ****     }
 782              		.loc 5 358 9 is_stmt 1 view .LVU251
ARM GAS  /var/folders/cn/msls48b51jq2dpk8d4mt2d4w0000gn/T//cczoUJhV.s 			page 37


 358:my_pedal.cpp  ****     }
 783              		.loc 5 358 13 is_stmt 0 view .LVU252
 784 0028 91F86435 		ldrb	r3, [r1, #1380]	@ zero_extendqisi2
 785              	.LVL33:
 358:my_pedal.cpp  ****     }
 786              		.loc 5 358 13 view .LVU253
 787 002c 0BB3     		cbz	r3, .L25
 788              	.LVL34:
 358:my_pedal.cpp  ****     }
 789              		.loc 5 358 13 view .LVU254
 790              	.LBE729:
 791              	.LBB730:
 792              	.LBI730:
 352:my_pedal.cpp  **** {
 793              		.loc 5 352 13 is_stmt 1 view .LVU255
 794              	.LBB731:
 795              	.LBB732:
 358:my_pedal.cpp  ****     }
 796              		.loc 5 358 13 is_stmt 0 view .LVU256
 797 002e C0EB0013 		rsb	r3, r0, r0, lsl #4
 798 0032 41F28451 		movw	r1, #5508
 799 0036 7822     		movs	r2, #120
 800 0038 6046     		mov	r0, ip
 801              	.LVL35:
 358:my_pedal.cpp  ****     }
 802              		.loc 5 358 13 view .LVU257
 803 003a 05EBC303 		add	r3, r5, r3, lsl #3
 804 003e 1944     		add	r1, r1, r3
 805 0040 FFF7FEFF 		bl	memcpy
 806              	.LVL36:
 358:my_pedal.cpp  ****     }
 807              		.loc 5 358 13 view .LVU258
 808              	.LBE732:
 809              	.LBE731:
 810              	.LBE730:
 366:my_pedal.cpp  **** 
 811              		.loc 5 366 1 view .LVU259
 812 0044 F8BD     		pop	{r3, r4, r5, r6, r7, pc}
 813              	.LVL37:
 814              	.L24:
 815              	.LBB733:
 816              	.LBB724:
 362:my_pedal.cpp  ****         band = "Custom"; song = c.name;
 817              		.loc 5 362 9 is_stmt 1 view .LVU260
 362:my_pedal.cpp  ****         band = "Custom"; song = c.name;
 818              		.loc 5 362 41 is_stmt 0 view .LVU261
 819 0046 011B     		subs	r1, r0, r4
 820              	.LVL38:
 363:my_pedal.cpp  ****         out = c.p;
 821              		.loc 5 363 9 is_stmt 1 view .LVU262
 363:my_pedal.cpp  ****         out = c.p;
 822              		.loc 5 363 14 is_stmt 0 view .LVU263
 823 0048 594C     		ldr	r4, .L49+12
 364:my_pedal.cpp  ****     }
 824              		.loc 5 364 13 view .LVU264
 825 004a 6046     		mov	r0, ip
 826              	.LVL39:
ARM GAS  /var/folders/cn/msls48b51jq2dpk8d4mt2d4w0000gn/T//cczoUJhV.s 			page 38


 363:my_pedal.cpp  ****         out = c.p;
 827              		.loc 5 363 35 view .LVU265
 828 004c 01EB4111 		add	r1, r1, r1, lsl #5
 829              	.LVL40:
 363:my_pedal.cpp  ****         out = c.p;
 830              		.loc 5 363 14 view .LVU266
 831 0050 1460     		str	r4, [r2]
 363:my_pedal.cpp  ****         out = c.p;
 832              		.loc 5 363 26 is_stmt 1 view .LVU267
 363:my_pedal.cpp  ****         out = c.p;
 833              		.loc 5 363 35 is_stmt 0 view .LVU268
 834 0052 42F28844 		movw	r4, #9352
 835 0056 554A     		ldr	r2, .L49+8
 836              	.LVL41:
 363:my_pedal.cpp  ****         out = c.p;
 837              		.loc 5 363 35 view .LVU269
 838 0058 04EB8104 		add	r4, r4, r1, lsl #2
 364:my_pedal.cpp  ****     }
 839              		.loc 5 364 13 view .LVU270
 840 005c 02EB810C 		add	ip, r2, r1, lsl #2
 841              	.LVL42:
 364:my_pedal.cpp  ****     }
 842              		.loc 5 364 13 view .LVU271
 843 0060 42F29441 		movw	r1, #9364
 363:my_pedal.cpp  ****         out = c.p;
 844              		.loc 5 363 35 view .LVU272
 845 0064 1444     		add	r4, r4, r2
 364:my_pedal.cpp  ****     }
 846              		.loc 5 364 13 view .LVU273
 847 0066 7822     		movs	r2, #120
 848 0068 6144     		add	r1, r1, ip
 363:my_pedal.cpp  ****         out = c.p;
 849              		.loc 5 363 31 view .LVU274
 850 006a 1C60     		str	r4, [r3]
 364:my_pedal.cpp  ****     }
 851              		.loc 5 364 9 is_stmt 1 view .LVU275
 364:my_pedal.cpp  ****     }
 852              		.loc 5 364 13 is_stmt 0 view .LVU276
 853 006c FFF7FEFF 		bl	memcpy
 854              	.LVL43:
 364:my_pedal.cpp  ****     }
 855              		.loc 5 364 13 view .LVU277
 856              	.LBE724:
 857              	.LBE733:
 366:my_pedal.cpp  **** 
 858              		.loc 5 366 1 view .LVU278
 859 0070 F8BD     		pop	{r3, r4, r5, r6, r7, pc}
 860              	.LVL44:
 861              	.L25:
 862              	.LBB734:
 863              	.LBB725:
 864              	.LBI725:
 302:my_pedal.cpp  **** {
 865              		.loc 5 302 21 is_stmt 1 view .LVU279
 866              	.LBB726:
 304:my_pedal.cpp  ****     t.model = s.ampModelBin; t.ir = s.irBin;
 867              		.loc 5 304 5 view .LVU280
ARM GAS  /var/folders/cn/msls48b51jq2dpk8d4mt2d4w0000gn/T//cczoUJhV.s 			page 39


 305:my_pedal.cpp  ****     t.gain = s.gain; t.mix = s.mix; t.level = s.level; t.tone = s.tone;
 868              		.loc 5 305 5 view .LVU281
 310:my_pedal.cpp  ****     t.eqMid = s.eqMid > 0.0f ? s.eqMid : 0.5f;
 869              		.loc 5 310 17 is_stmt 0 view .LVU282
 870 0072 D2ED0F4A 		vldr.32	s9, [r2, #60]
 871              	.LBE726:
 872              	.LBE725:
 358:my_pedal.cpp  ****     }
 873              		.loc 5 358 71 view .LVU283
 874 0076 4FF07C54 		mov	r4, #1056964608
 875              	.LBB728:
 876              	.LBB727:
 311:my_pedal.cpp  ****     t.eqHigh = s.eqHigh > 0.0f ? s.eqHigh : 0.5f;
 877              		.loc 5 311 17 view .LVU284
 878 007a 92ED105A 		vldr.32	s10, [r2, #64]
 310:my_pedal.cpp  ****     t.eqMid = s.eqMid > 0.0f ? s.eqMid : 0.5f;
 879              		.loc 5 310 30 view .LVU285
 880 007e F5EEC04A 		vcmpe.f32	s9, #0
 312:my_pedal.cpp  ****     t.revFb = s.revFb > 0.0f ? s.revFb : 0.84f;
 881              		.loc 5 312 18 view .LVU286
 882 0082 D2ED115A 		vldr.32	s11, [r2, #68]
 313:my_pedal.cpp  ****     t.revDamp = s.revDamp > 0.0f ? s.revDamp : 0.35f;
 883              		.loc 5 313 17 view .LVU287
 884 0086 92ED126A 		vldr.32	s12, [r2, #72]
 314:my_pedal.cpp  ****     // ąźąŠčĆčāčü ąĖąĘ ą┐čĆąĄčüąĄčéą░ (0 mix = ą▓čŗą║ą╗); phaser/flanger ą▓čŗą║ą╗čÄčćąĄąĮčŗ.
 885              		.loc 5 314 19 view .LVU288
 886 008a D2ED136A 		vldr.32	s13, [r2, #76]
 310:my_pedal.cpp  ****     t.eqMid = s.eqMid > 0.0f ? s.eqMid : 0.5f;
 887              		.loc 5 310 30 view .LVU289
 888 008e F1EE10FA 		vmrs	APSR_nzcv, FPSCR
 316:my_pedal.cpp  ****     t.phaserMix = 0.0f; t.phaserRate = 0.3f; t.phaserDepth = 0.6f; t.phaserFb = 0.3f;
 889              		.loc 5 316 49 view .LVU290
 890 0092 92ED157A 		vldr.32	s14, [r2, #84]
 311:my_pedal.cpp  ****     t.eqHigh = s.eqHigh > 0.0f ? s.eqHigh : 0.5f;
 891              		.loc 5 311 30 view .LVU291
 892 0096 B5EEC05A 		vcmpe.f32	s10, #0
 316:my_pedal.cpp  ****     t.phaserMix = 0.0f; t.phaserRate = 0.3f; t.phaserDepth = 0.6f; t.phaserFb = 0.3f;
 893              		.loc 5 316 108 view .LVU292
 894 009a D2ED167A 		vldr.32	s15, [r2, #88]
 316:my_pedal.cpp  ****     t.phaserMix = 0.0f; t.phaserRate = 0.3f; t.phaserDepth = 0.6f; t.phaserFb = 0.3f;
 895              		.loc 5 316 21 view .LVU293
 896 009e 116D     		ldr	r1, [r2, #80]	@ float
 310:my_pedal.cpp  ****     t.eqMid = s.eqMid > 0.0f ? s.eqMid : 0.5f;
 897              		.loc 5 310 30 view .LVU294
 898 00a0 D8BF     		it	le
 899 00a2 F6EE004A 		vmovle.f32	s9, #5.0e-1
 320:my_pedal.cpp  ****     return t;
 900              		.loc 5 320 19 view .LVU295
 901 00a6 D36D     		ldr	r3, [r2, #92]	@ float
 311:my_pedal.cpp  ****     t.eqHigh = s.eqHigh > 0.0f ? s.eqHigh : 0.5f;
 902              		.loc 5 311 30 view .LVU296
 903 00a8 F1EE10FA 		vmrs	APSR_nzcv, FPSCR
 320:my_pedal.cpp  ****     return t;
 904              		.loc 5 320 37 view .LVU297
 905 00ac 106E     		ldr	r0, [r2, #96]	@ float
 906              	.LVL45:
 312:my_pedal.cpp  ****     t.revFb = s.revFb > 0.0f ? s.revFb : 0.84f;
ARM GAS  /var/folders/cn/msls48b51jq2dpk8d4mt2d4w0000gn/T//cczoUJhV.s 			page 40


 907              		.loc 5 312 32 view .LVU298
 908 00ae F5EEC05A 		vcmpe.f32	s11, #0
 306:my_pedal.cpp  ****     t.revMix = s.revMix; t.delayMix = s.delayMix; t.delayTimeMs = s.delayTimeMs;
 909              		.loc 5 306 16 view .LVU299
 910 00b2 D2ED050A 		vldr.32	s1, [r2, #20]
 306:my_pedal.cpp  ****     t.revMix = s.revMix; t.delayMix = s.delayMix; t.delayTimeMs = s.delayTimeMs;
 911              		.loc 5 306 32 view .LVU300
 912 00b6 92ED061A 		vldr.32	s2, [r2, #24]
 311:my_pedal.cpp  ****     t.eqHigh = s.eqHigh > 0.0f ? s.eqHigh : 0.5f;
 913              		.loc 5 311 30 view .LVU301
 914 00ba D8BF     		it	le
 915 00bc B6EE005A 		vmovle.f32	s10, #5.0e-1
 306:my_pedal.cpp  ****     t.revMix = s.revMix; t.delayMix = s.delayMix; t.delayTimeMs = s.delayTimeMs;
 916              		.loc 5 306 49 view .LVU302
 917 00c0 D2ED071A 		vldr.32	s3, [r2, #28]
 312:my_pedal.cpp  ****     t.revFb = s.revFb > 0.0f ? s.revFb : 0.84f;
 918              		.loc 5 312 32 view .LVU303
 919 00c4 F1EE10FA 		vmrs	APSR_nzcv, FPSCR
 306:my_pedal.cpp  ****     t.revMix = s.revMix; t.delayMix = s.delayMix; t.delayTimeMs = s.delayTimeMs;
 920              		.loc 5 306 67 view .LVU304
 921 00c8 92ED082A 		vldr.32	s4, [r2, #32]
 313:my_pedal.cpp  ****     t.revDamp = s.revDamp > 0.0f ? s.revDamp : 0.35f;
 922              		.loc 5 313 30 view .LVU305
 923 00cc B5EEC06A 		vcmpe.f32	s12, #0
 307:my_pedal.cpp  ****     t.delayFb = s.delayFb; t.tremDepth = s.tremDepth; t.tremRate = s.tremRate;
 924              		.loc 5 307 18 view .LVU306
 925 00d0 D2ED092A 		vldr.32	s5, [r2, #36]
 307:my_pedal.cpp  ****     t.delayFb = s.delayFb; t.tremDepth = s.tremDepth; t.tremRate = s.tremRate;
 926              		.loc 5 307 41 view .LVU307
 927 00d4 92ED0A3A 		vldr.32	s6, [r2, #40]
 312:my_pedal.cpp  ****     t.revFb = s.revFb > 0.0f ? s.revFb : 0.84f;
 928              		.loc 5 312 32 view .LVU308
 929 00d8 D8BF     		it	le
 930 00da F6EE005A 		vmovle.f32	s11, #5.0e-1
 307:my_pedal.cpp  ****     t.delayFb = s.delayFb; t.tremDepth = s.tremDepth; t.tremRate = s.tremRate;
 931              		.loc 5 307 69 view .LVU309
 932 00de D2ED0B3A 		vldr.32	s7, [r2, #44]
 313:my_pedal.cpp  ****     t.revDamp = s.revDamp > 0.0f ? s.revDamp : 0.35f;
 933              		.loc 5 313 30 view .LVU310
 934 00e2 F1EE10FA 		vmrs	APSR_nzcv, FPSCR
 308:my_pedal.cpp  ****     // ąØąŠą▓čŗąĄ ą┐ąŠą╗čÅ: 0 ą▓ song_library => ┬½ą┐ąŠ čāą╝ąŠą╗čćą░ąĮąĖčÄ┬╗.
 935              		.loc 5 308 19 view .LVU311
 936 00e6 92ED0C4A 		vldr.32	s8, [r2, #48]
 314:my_pedal.cpp  ****     // ąźąŠčĆčāčü ąĖąĘ ą┐čĆąĄčüąĄčéą░ (0 mix = ą▓čŗą║ą╗); phaser/flanger ą▓čŗą║ą╗čÄčćąĄąĮčŗ.
 937              		.loc 5 314 34 view .LVU312
 938 00ea F5EEC06A 		vcmpe.f32	s13, #0
 308:my_pedal.cpp  ****     // ąØąŠą▓čŗąĄ ą┐ąŠą╗čÅ: 0 ą▓ song_library => ┬½ą┐ąŠ čāą╝ąŠą╗čćą░ąĮąĖčÄ┬╗.
 939              		.loc 5 308 44 view .LVU313
 940 00ee D2F834E0 		ldr	lr, [r2, #52]	@ float
 308:my_pedal.cpp  ****     // ąØąŠą▓čŗąĄ ą┐ąŠą╗čÅ: 0 ą▓ song_library => ┬½ą┐ąŠ čāą╝ąŠą╗čćą░ąĮąĖčÄ┬╗.
 941              		.loc 5 308 70 view .LVU314
 942 00f2 956B     		ldr	r5, [r2, #56]	@ float
 313:my_pedal.cpp  ****     t.revDamp = s.revDamp > 0.0f ? s.revDamp : 0.35f;
 943              		.loc 5 313 30 view .LVU315
 944 00f4 D8BF     		it	le
 945 00f6 9FED2F6A 		vldrle.32	s12, .L49+16
 314:my_pedal.cpp  ****     // ąźąŠčĆčāčü ąĖąĘ ą┐čĆąĄčüąĄčéą░ (0 mix = ą▓čŗą║ą╗); phaser/flanger ą▓čŗą║ą╗čÄčćąĄąĮčŗ.
ARM GAS  /var/folders/cn/msls48b51jq2dpk8d4mt2d4w0000gn/T//cczoUJhV.s 			page 41


 946              		.loc 5 314 34 view .LVU316
 947 00fa F1EE10FA 		vmrs	APSR_nzcv, FPSCR
 316:my_pedal.cpp  ****     t.phaserMix = 0.0f; t.phaserRate = 0.3f; t.phaserDepth = 0.6f; t.phaserFb = 0.3f;
 948              		.loc 5 316 67 view .LVU317
 949 00fe B5EEC07A 		vcmpe.f32	s14, #0
 314:my_pedal.cpp  ****     // ąźąŠčĆčāčü ąĖąĘ ą┐čĆąĄčüąĄčéą░ (0 mix = ą▓čŗą║ą╗); phaser/flanger ą▓čŗą║ą╗čÄčćąĄąĮčŗ.
 950              		.loc 5 314 34 view .LVU318
 951 0102 D8BF     		it	le
 952 0104 DFED2C6A 		vldrle.32	s13, .L49+20
 316:my_pedal.cpp  ****     t.phaserMix = 0.0f; t.phaserRate = 0.3f; t.phaserDepth = 0.6f; t.phaserFb = 0.3f;
 953              		.loc 5 316 67 view .LVU319
 954 0108 F1EE10FA 		vmrs	APSR_nzcv, FPSCR
 316:my_pedal.cpp  ****     t.phaserMix = 0.0f; t.phaserRate = 0.3f; t.phaserDepth = 0.6f; t.phaserFb = 0.3f;
 955              		.loc 5 316 127 view .LVU320
 956 010c F5EEC07A 		vcmpe.f32	s15, #0
 316:my_pedal.cpp  ****     t.phaserMix = 0.0f; t.phaserRate = 0.3f; t.phaserDepth = 0.6f; t.phaserFb = 0.3f;
 957              		.loc 5 316 67 view .LVU321
 958 0110 D8BF     		it	le
 959 0112 9FED2A7A 		vldrle.32	s14, .L49+24
 316:my_pedal.cpp  ****     t.phaserMix = 0.0f; t.phaserRate = 0.3f; t.phaserDepth = 0.6f; t.phaserFb = 0.3f;
 960              		.loc 5 316 127 view .LVU322
 961 0116 F1EE10FA 		vmrs	APSR_nzcv, FPSCR
 305:my_pedal.cpp  ****     t.gain = s.gain; t.mix = s.mix; t.level = s.level; t.tone = s.tone;
 962              		.loc 5 305 39 view .LVU323
 963 011a D2E90376 		ldrd	r7, r6, [r2, #12]
 306:my_pedal.cpp  ****     t.revMix = s.revMix; t.delayMix = s.delayMix; t.delayTimeMs = s.delayTimeMs;
 964              		.loc 5 306 5 is_stmt 1 view .LVU324
 306:my_pedal.cpp  ****     t.revMix = s.revMix; t.delayMix = s.delayMix; t.delayTimeMs = s.delayTimeMs;
 965              		.loc 5 306 22 view .LVU325
 306:my_pedal.cpp  ****     t.revMix = s.revMix; t.delayMix = s.delayMix; t.delayTimeMs = s.delayTimeMs;
 966              		.loc 5 306 37 view .LVU326
 306:my_pedal.cpp  ****     t.revMix = s.revMix; t.delayMix = s.delayMix; t.delayTimeMs = s.delayTimeMs;
 967              		.loc 5 306 56 view .LVU327
 307:my_pedal.cpp  ****     t.delayFb = s.delayFb; t.tremDepth = s.tremDepth; t.tremRate = s.tremRate;
 968              		.loc 5 307 5 view .LVU328
 307:my_pedal.cpp  ****     t.delayFb = s.delayFb; t.tremDepth = s.tremDepth; t.tremRate = s.tremRate;
 969              		.loc 5 307 26 view .LVU329
 307:my_pedal.cpp  ****     t.delayFb = s.delayFb; t.tremDepth = s.tremDepth; t.tremRate = s.tremRate;
 970              		.loc 5 307 51 view .LVU330
 308:my_pedal.cpp  ****     // ąØąŠą▓čŗąĄ ą┐ąŠą╗čÅ: 0 ą▓ song_library => ┬½ą┐ąŠ čāą╝ąŠą╗čćą░ąĮąĖčÄ┬╗.
 971              		.loc 5 308 5 view .LVU331
 308:my_pedal.cpp  ****     // ąØąŠą▓čŗąĄ ą┐ąŠą╗čÅ: 0 ą▓ song_library => ┬½ą┐ąŠ čāą╝ąŠą╗čćą░ąĮąĖčÄ┬╗.
 972              		.loc 5 308 28 view .LVU332
 308:my_pedal.cpp  ****     // ąØąŠą▓čŗąĄ ą┐ąŠą╗čÅ: 0 ą▓ song_library => ┬½ą┐ąŠ čāą╝ąŠą╗čćą░ąĮąĖčÄ┬╗.
 973              		.loc 5 308 55 view .LVU333
 310:my_pedal.cpp  ****     t.eqMid = s.eqMid > 0.0f ? s.eqMid : 0.5f;
 974              		.loc 5 310 5 view .LVU334
 311:my_pedal.cpp  ****     t.eqHigh = s.eqHigh > 0.0f ? s.eqHigh : 0.5f;
 975              		.loc 5 311 5 view .LVU335
 312:my_pedal.cpp  ****     t.revFb = s.revFb > 0.0f ? s.revFb : 0.84f;
 976              		.loc 5 312 5 view .LVU336
 313:my_pedal.cpp  ****     t.revDamp = s.revDamp > 0.0f ? s.revDamp : 0.35f;
 977              		.loc 5 313 5 view .LVU337
 314:my_pedal.cpp  ****     // ąźąŠčĆčāčü ąĖąĘ ą┐čĆąĄčüąĄčéą░ (0 mix = ą▓čŗą║ą╗); phaser/flanger ą▓čŗą║ą╗čÄčćąĄąĮčŗ.
 978              		.loc 5 314 5 view .LVU338
 316:my_pedal.cpp  ****     t.phaserMix = 0.0f; t.phaserRate = 0.3f; t.phaserDepth = 0.6f; t.phaserFb = 0.3f;
 979              		.loc 5 316 5 view .LVU339
ARM GAS  /var/folders/cn/msls48b51jq2dpk8d4mt2d4w0000gn/T//cczoUJhV.s 			page 42


 316:my_pedal.cpp  ****     t.phaserMix = 0.0f; t.phaserRate = 0.3f; t.phaserDepth = 0.6f; t.phaserFb = 0.3f;
 980              		.loc 5 316 32 view .LVU340
 316:my_pedal.cpp  ****     t.phaserMix = 0.0f; t.phaserRate = 0.3f; t.phaserDepth = 0.6f; t.phaserFb = 0.3f;
 981              		.loc 5 316 90 view .LVU341
 316:my_pedal.cpp  ****     t.phaserMix = 0.0f; t.phaserRate = 0.3f; t.phaserDepth = 0.6f; t.phaserFb = 0.3f;
 982              		.loc 5 316 127 is_stmt 0 view .LVU342
 983 011e D8BF     		it	le
 984 0120 F6EE007A 		vmovle.f32	s15, #5.0e-1
 317:my_pedal.cpp  ****     t.flangerMix = 0.0f; t.flangerRate = 0.2f; t.flangerDepth = 0.5f; t.flangerFb = 0.3f;
 985              		.loc 5 317 5 is_stmt 1 view .LVU343
 317:my_pedal.cpp  ****     t.flangerMix = 0.0f; t.flangerRate = 0.2f; t.flangerDepth = 0.5f; t.flangerFb = 0.3f;
 986              		.loc 5 317 25 view .LVU344
 317:my_pedal.cpp  ****     t.flangerMix = 0.0f; t.flangerRate = 0.2f; t.flangerDepth = 0.5f; t.flangerFb = 0.3f;
 987              		.loc 5 317 46 view .LVU345
 317:my_pedal.cpp  ****     t.flangerMix = 0.0f; t.flangerRate = 0.2f; t.flangerDepth = 0.5f; t.flangerFb = 0.3f;
 988              		.loc 5 317 68 view .LVU346
 318:my_pedal.cpp  ****     // ąÜąŠą╝ą┐čĆąĄčüčüąŠčĆ + ą▒čāčüčé ąĖąĘ ą┐čĆąĄčüąĄčéą░.
 989              		.loc 5 318 5 view .LVU347
 318:my_pedal.cpp  ****     // ąÜąŠą╝ą┐čĆąĄčüčüąŠčĆ + ą▒čāčüčé ąĖąĘ ą┐čĆąĄčüąĄčéą░.
 990              		.loc 5 318 26 view .LVU348
 318:my_pedal.cpp  ****     // ąÜąŠą╝ą┐čĆąĄčüčüąŠčĆ + ą▒čāčüčé ąĖąĘ ą┐čĆąĄčüąĄčéą░.
 991              		.loc 5 318 48 view .LVU349
 318:my_pedal.cpp  ****     // ąÜąŠą╝ą┐čĆąĄčüčüąŠčĆ + ą▒čāčüčé ąĖąĘ ą┐čĆąĄčüąĄčéą░.
 992              		.loc 5 318 71 view .LVU350
 320:my_pedal.cpp  ****     return t;
 993              		.loc 5 320 5 view .LVU351
 320:my_pedal.cpp  ****     return t;
 994              		.loc 5 320 25 view .LVU352
 321:my_pedal.cpp  **** }
 995              		.loc 5 321 5 view .LVU353
 996              	.LVL46:
 321:my_pedal.cpp  **** }
 997              		.loc 5 321 5 is_stmt 0 view .LVU354
 998              	.LBE727:
 999              	.LBE728:
 358:my_pedal.cpp  ****     }
 1000              		.loc 5 358 71 view .LVU355
 1001 0124 0022     		movs	r2, #0
 1002 0126 CCED020A 		vstr.32	s1, [ip, #8]
 1003 012a 8CED031A 		vstr.32	s2, [ip, #12]
 1004 012e CCED041A 		vstr.32	s3, [ip, #16]
 1005 0132 8CED052A 		vstr.32	s4, [ip, #20]
 1006 0136 CCED062A 		vstr.32	s5, [ip, #24]
 1007 013a 8CED073A 		vstr.32	s6, [ip, #28]
 1008 013e CCED083A 		vstr.32	s7, [ip, #32]
 1009 0142 8CED094A 		vstr.32	s8, [ip, #36]
 1010 0146 CCE90076 		strd	r7, r6, [ip]
 1011 014a CCF828E0 		str	lr, [ip, #40]	@ float
 1012 014e CCF87030 		str	r3, [ip, #112]	@ float
 1013 0152 CCF87400 		str	r0, [ip, #116]	@ float
 1014 0156 1A4B     		ldr	r3, .L49+28
 1015 0158 1A48     		ldr	r0, .L49+32
 1016 015a CCF84410 		str	r1, [ip, #68]	@ float
 1017 015e 1A49     		ldr	r1, .L49+36
 1018 0160 CCF82C50 		str	r5, [ip, #44]	@ float
 1019 0164 CCF86840 		str	r4, [ip, #104]	@ float
 1020 0168 CCED0C4A 		vstr.32	s9, [ip, #48]
ARM GAS  /var/folders/cn/msls48b51jq2dpk8d4mt2d4w0000gn/T//cczoUJhV.s 			page 43


 1021 016c 8CED0D5A 		vstr.32	s10, [ip, #52]
 1022 0170 CCED0E5A 		vstr.32	s11, [ip, #56]
 1023 0174 8CED0F6A 		vstr.32	s12, [ip, #60]
 1024 0178 CCED106A 		vstr.32	s13, [ip, #64]
 1025 017c 8CED127A 		vstr.32	s14, [ip, #72]
 1026 0180 CCED137A 		vstr.32	s15, [ip, #76]
 1027 0184 CCF85020 		str	r2, [ip, #80]	@ float
 1028 0188 CCF85430 		str	r3, [ip, #84]	@ float
 1029 018c CCF85800 		str	r0, [ip, #88]	@ float
 1030 0190 CCF85C30 		str	r3, [ip, #92]	@ float
 1031 0194 CCF86020 		str	r2, [ip, #96]	@ float
 1032 0198 CCF86410 		str	r1, [ip, #100]	@ float
 1033 019c CCF86C30 		str	r3, [ip, #108]	@ float
 1034              	.LBE734:
 366:my_pedal.cpp  **** 
 1035              		.loc 5 366 1 view .LVU356
 1036 01a0 F8BD     		pop	{r3, r4, r5, r6, r7, pc}
 1037              	.L50:
 1038 01a2 00BF     		.align	2
 1039              	.L49:
 1040 01a4 00000000 		.word	.LANCHOR31
 1041 01a8 00000000 		.word	.LANCHOR32
 1042 01ac 00000000 		.word	storage
 1043 01b0 00000000 		.word	.LC3
 1044 01b4 3D0A573F 		.word	1062668861
 1045 01b8 3333B33E 		.word	1051931443
 1046 01bc CDCCCC3E 		.word	1053609165
 1047 01c0 9A99993E 		.word	1050253722
 1048 01c4 9A99193F 		.word	1058642330
 1049 01c8 CDCC4C3E 		.word	1045220557
 1050              		.cfi_endproc
 1051              	.LFE14381:
 1053              		.section	.text._ZL9applySongi,"ax",%progbits
 1054              		.align	1
 1055              		.p2align 2,,3
 1056              		.syntax unified
 1057              		.thumb
 1058              		.thumb_func
 1060              	_ZL9applySongi:
 1061              	.LVL47:
 1062              	.LFB14385:
 613:my_pedal.cpp  ****     StoredPreset t; const char *b; const char *s;
 1063              		.loc 5 613 1 is_stmt 1 view -0
 1064              		.cfi_startproc
 1065              		@ args = 0, pretend = 0, frame = 128
 1066              		@ frame_needed = 0, uses_anonymous_args = 0
 614:my_pedal.cpp  ****     getEffective(idx, t, b, s);
 1067              		.loc 5 614 5 view .LVU358
 614:my_pedal.cpp  ****     getEffective(idx, t, b, s);
 1068              		.loc 5 614 21 view .LVU359
 614:my_pedal.cpp  ****     getEffective(idx, t, b, s);
 1069              		.loc 5 614 36 view .LVU360
 615:my_pedal.cpp  ****     g_muteCountdown = g_switchMuteSamples;
 1070              		.loc 5 615 5 view .LVU361
 613:my_pedal.cpp  ****     StoredPreset t; const char *b; const char *s;
 1071              		.loc 5 613 1 is_stmt 0 view .LVU362
 1072 0000 30B5     		push	{r4, r5, lr}
ARM GAS  /var/folders/cn/msls48b51jq2dpk8d4mt2d4w0000gn/T//cczoUJhV.s 			page 44


 1073              		.cfi_def_cfa_offset 12
 1074              		.cfi_offset 4, -12
 1075              		.cfi_offset 5, -8
 1076              		.cfi_offset 14, -4
 1077 0002 A1B0     		sub	sp, sp, #132
 1078              		.cfi_def_cfa_offset 144
 624:my_pedal.cpp  **** 
 1079              		.loc 5 624 86 view .LVU363
 1080 0004 624C     		ldr	r4, .L57
 635:my_pedal.cpp  ****     tremolo.SetDepth(g_tremDepth);
 1081              		.loc 5 635 16 view .LVU364
 1082 0006 634D     		ldr	r5, .L57+4
 615:my_pedal.cpp  ****     g_muteCountdown = g_switchMuteSamples;
 1083              		.loc 5 615 17 view .LVU365
 1084 0008 01AB     		add	r3, sp, #4
 1085 000a 6A46     		mov	r2, sp
 1086 000c 02A9     		add	r1, sp, #8
 1087 000e FFF7FEFF 		bl	_ZL12getEffectiveiR12StoredPresetRPKcS3_
 1088              	.LVL48:
 616:my_pedal.cpp  **** 
 1089              		.loc 5 616 5 is_stmt 1 view .LVU366
 616:my_pedal.cpp  **** 
 1090              		.loc 5 616 21 is_stmt 0 view .LVU367
 1091 0012 6149     		ldr	r1, .L57+8
 1092 0014 614B     		ldr	r3, .L57+12
 1093 0016 0868     		ldr	r0, [r1]
 618:my_pedal.cpp  ****     amp.SetParameterAsBinnedValue(P_IR, t.ir);
 1094              		.loc 5 618 34 view .LVU368
 1095 0018 0421     		movs	r1, #4
 1096 001a 029A     		ldr	r2, [sp, #8]
 616:my_pedal.cpp  **** 
 1097              		.loc 5 616 21 view .LVU369
 1098 001c 1860     		str	r0, [r3]
 618:my_pedal.cpp  ****     amp.SetParameterAsBinnedValue(P_IR, t.ir);
 1099              		.loc 5 618 5 is_stmt 1 view .LVU370
 618:my_pedal.cpp  ****     amp.SetParameterAsBinnedValue(P_IR, t.ir);
 1100              		.loc 5 618 34 is_stmt 0 view .LVU371
 1101 001e 6048     		ldr	r0, .L57+16
 1102 0020 FFF7FEFF 		bl	_ZN10bkshepherd16BaseEffectModule25SetParameterAsBinnedValueEii
 1103              	.LVL49:
 619:my_pedal.cpp  ****     amp.SetParameterAsMagnitude(P_GAIN, t.gain);
 1104              		.loc 5 619 5 is_stmt 1 view .LVU372
 619:my_pedal.cpp  ****     amp.SetParameterAsMagnitude(P_GAIN, t.gain);
 1105              		.loc 5 619 34 is_stmt 0 view .LVU373
 1106 0024 039A     		ldr	r2, [sp, #12]
 1107 0026 0521     		movs	r1, #5
 1108 0028 5D48     		ldr	r0, .L57+16
 1109 002a FFF7FEFF 		bl	_ZN10bkshepherd16BaseEffectModule25SetParameterAsBinnedValueEii
 1110              	.LVL50:
 620:my_pedal.cpp  ****     amp.SetParameterAsMagnitude(P_MIX, t.mix);
 1111              		.loc 5 620 5 is_stmt 1 view .LVU374
 620:my_pedal.cpp  ****     amp.SetParameterAsMagnitude(P_MIX, t.mix);
 1112              		.loc 5 620 32 is_stmt 0 view .LVU375
 1113 002e 9DED040A 		vldr.32	s0, [sp, #16]
 1114 0032 0021     		movs	r1, #0
 1115 0034 5A48     		ldr	r0, .L57+16
 1116 0036 FFF7FEFF 		bl	_ZN10bkshepherd16BaseEffectModule23SetParameterAsMagnitudeEif
ARM GAS  /var/folders/cn/msls48b51jq2dpk8d4mt2d4w0000gn/T//cczoUJhV.s 			page 45


 1117              	.LVL51:
 621:my_pedal.cpp  ****     amp.SetParameterAsMagnitude(P_LEVEL, t.level);
 1118              		.loc 5 621 5 is_stmt 1 view .LVU376
 621:my_pedal.cpp  ****     amp.SetParameterAsMagnitude(P_LEVEL, t.level);
 1119              		.loc 5 621 32 is_stmt 0 view .LVU377
 1120 003a 9DED050A 		vldr.32	s0, [sp, #20]
 1121 003e 0121     		movs	r1, #1
 1122 0040 5748     		ldr	r0, .L57+16
 1123 0042 FFF7FEFF 		bl	_ZN10bkshepherd16BaseEffectModule23SetParameterAsMagnitudeEif
 1124              	.LVL52:
 622:my_pedal.cpp  ****     amp.SetParameterAsMagnitude(P_TONE, t.tone);
 1125              		.loc 5 622 5 is_stmt 1 view .LVU378
 622:my_pedal.cpp  ****     amp.SetParameterAsMagnitude(P_TONE, t.tone);
 1126              		.loc 5 622 32 is_stmt 0 view .LVU379
 1127 0046 9DED060A 		vldr.32	s0, [sp, #24]
 1128 004a 0221     		movs	r1, #2
 1129 004c 5448     		ldr	r0, .L57+16
 1130 004e FFF7FEFF 		bl	_ZN10bkshepherd16BaseEffectModule23SetParameterAsMagnitudeEif
 1131              	.LVL53:
 623:my_pedal.cpp  ****     g_revMix = t.revMix; g_delayMix = t.delayMix; g_delayFb = t.delayFb; g_tremDepth = t.tremDepth;
 1132              		.loc 5 623 5 is_stmt 1 view .LVU380
 623:my_pedal.cpp  ****     g_revMix = t.revMix; g_delayMix = t.delayMix; g_delayFb = t.delayFb; g_tremDepth = t.tremDepth;
 1133              		.loc 5 623 32 is_stmt 0 view .LVU381
 1134 0052 9DED070A 		vldr.32	s0, [sp, #28]
 1135 0056 0321     		movs	r1, #3
 1136 0058 5148     		ldr	r0, .L57+16
 1137 005a FFF7FEFF 		bl	_ZN10bkshepherd16BaseEffectModule23SetParameterAsMagnitudeEif
 1138              	.LVL54:
 624:my_pedal.cpp  **** 
 1139              		.loc 5 624 5 is_stmt 1 view .LVU382
 626:my_pedal.cpp  ****     // ąĢčüą╗ąĖ ą▓čĆąĄą╝čÅ delay ą▓ ą┐čĆąĄčüąĄčéąĄ ąĮąĄ ąĘą░ą┤ą░ąĮąŠ ŌĆö ą┤ąĄčäąŠą╗čé 300 ą╝čü, čćč
 1140              		.loc 5 626 11 is_stmt 0 view .LVU383
 1141 005e 9DED0A7A 		vldr.32	s14, [sp, #40]
 1142 0062 DFED507A 		vldr.32	s15, .L57+20
 624:my_pedal.cpp  **** 
 1143              		.loc 5 624 18 view .LVU384
 1144 0066 089A     		ldr	r2, [sp, #32]	@ float
 1145 0068 87FE677A 		vminnm.f32	s14, s14, s15
 624:my_pedal.cpp  **** 
 1146              		.loc 5 624 14 view .LVU385
 1147 006c 4E4B     		ldr	r3, .L57+24
 629:my_pedal.cpp  ****     int ds = (int)(g_delayTimeMs * 0.001f * g_sampleRate);
 1148              		.loc 5 629 34 view .LVU386
 1149 006e B5EEC07A 		vcmpe.f32	s14, #0
 624:my_pedal.cpp  **** 
 1150              		.loc 5 624 41 view .LVU387
 1151 0072 0998     		ldr	r0, [sp, #36]	@ float
 624:my_pedal.cpp  **** 
 1152              		.loc 5 624 14 view .LVU388
 1153 0074 1A60     		str	r2, [r3]	@ float
 624:my_pedal.cpp  **** 
 1154              		.loc 5 624 26 is_stmt 1 view .LVU389
 624:my_pedal.cpp  **** 
 1155              		.loc 5 624 37 is_stmt 0 view .LVU390
 1156 0076 4D49     		ldr	r1, .L57+28
 624:my_pedal.cpp  **** 
 1157              		.loc 5 624 65 view .LVU391
ARM GAS  /var/folders/cn/msls48b51jq2dpk8d4mt2d4w0000gn/T//cczoUJhV.s 			page 46


 1158 0078 0B9A     		ldr	r2, [sp, #44]	@ float
 629:my_pedal.cpp  ****     int ds = (int)(g_delayTimeMs * 0.001f * g_sampleRate);
 1159              		.loc 5 629 34 view .LVU392
 1160 007a F1EE10FA 		vmrs	APSR_nzcv, FPSCR
 624:my_pedal.cpp  **** 
 1161              		.loc 5 624 61 view .LVU393
 1162 007e 4C4B     		ldr	r3, .L57+32
 624:my_pedal.cpp  **** 
 1163              		.loc 5 624 37 view .LVU394
 1164 0080 0860     		str	r0, [r1]	@ float
 624:my_pedal.cpp  **** 
 1165              		.loc 5 624 51 is_stmt 1 view .LVU395
 1166 0082 4BF67F31 		movw	r1, #47999
 624:my_pedal.cpp  **** 
 1167              		.loc 5 624 61 is_stmt 0 view .LVU396
 1168 0086 1A60     		str	r2, [r3]	@ float
 624:my_pedal.cpp  **** 
 1169              		.loc 5 624 74 is_stmt 1 view .LVU397
 624:my_pedal.cpp  **** 
 1170              		.loc 5 624 90 is_stmt 0 view .LVU398
 1171 0088 0C9B     		ldr	r3, [sp, #48]	@ float
 629:my_pedal.cpp  ****     int ds = (int)(g_delayTimeMs * 0.001f * g_sampleRate);
 1172              		.loc 5 629 34 view .LVU399
 1173 008a D8BF     		it	le
 1174 008c 9FED497A 		vldrle.32	s14, .L57+36
 624:my_pedal.cpp  **** 
 1175              		.loc 5 624 86 view .LVU400
 1176 0090 2360     		str	r3, [r4]	@ float
 626:my_pedal.cpp  ****     // ąĢčüą╗ąĖ ą▓čĆąĄą╝čÅ delay ą▓ ą┐čĆąĄčüąĄčéąĄ ąĮąĄ ąĘą░ą┤ą░ąĮąŠ ŌĆö ą┤ąĄčäąŠą╗čé 300 ą╝čü, čćč
 1177              		.loc 5 626 5 is_stmt 1 view .LVU401
 1178              	.LVL55:
 626:my_pedal.cpp  ****     // ąĢčüą╗ąĖ ą▓čĆąĄą╝čÅ delay ą▓ ą┐čĆąĄčüąĄčéąĄ ąĮąĄ ąĘą░ą┤ą░ąĮąŠ ŌĆö ą┤ąĄčäąŠą╗čé 300 ą╝čü, čćč
 1179              		.loc 5 626 32 view .LVU402
 629:my_pedal.cpp  ****     int ds = (int)(g_delayTimeMs * 0.001f * g_sampleRate);
 1180              		.loc 5 629 5 view .LVU403
 630:my_pedal.cpp  ****     if (ds < 1) ds = 1;
 1181              		.loc 5 630 43 is_stmt 0 view .LVU404
 1182 0092 494A     		ldr	r2, .L57+40
 629:my_pedal.cpp  ****     int ds = (int)(g_delayTimeMs * 0.001f * g_sampleRate);
 1183              		.loc 5 629 19 view .LVU405
 1184 0094 494B     		ldr	r3, .L57+44
 630:my_pedal.cpp  ****     if (ds < 1) ds = 1;
 1185              		.loc 5 630 43 view .LVU406
 1186 0096 92ED006A 		vldr.32	s12, [r2]
 629:my_pedal.cpp  ****     int ds = (int)(g_delayTimeMs * 0.001f * g_sampleRate);
 1187              		.loc 5 629 19 view .LVU407
 1188 009a 83ED007A 		vstr.32	s14, [r3]
 630:my_pedal.cpp  ****     if (ds < 1) ds = 1;
 1189              		.loc 5 630 5 is_stmt 1 view .LVU408
 630:my_pedal.cpp  ****     if (ds < 1) ds = 1;
 1190              		.loc 5 630 20 is_stmt 0 view .LVU409
 1191 009e D3ED007A 		vldr.32	s15, [r3]
 1192              	.LVL56:
 631:my_pedal.cpp  ****     if (ds >= DELAY_BUF) ds = DELAY_BUF - 1;
 1193              		.loc 5 631 5 is_stmt 1 view .LVU410
 630:my_pedal.cpp  ****     if (ds < 1) ds = 1;
 1194              		.loc 5 630 43 is_stmt 0 view .LVU411
ARM GAS  /var/folders/cn/msls48b51jq2dpk8d4mt2d4w0000gn/T//cczoUJhV.s 			page 47


 1195 00a2 DFED476A 		vldr.32	s13, .L57+48
 1196 00a6 67EE867A 		vmul.f32	s15, s15, s12
 1197              	.LVL57:
 635:my_pedal.cpp  ****     tremolo.SetDepth(g_tremDepth);
 1198              		.loc 5 635 20 view .LVU412
 1199 00aa 9DED0D7A 		vldr.32	s14, [sp, #52]
 633:my_pedal.cpp  **** 
 1200              		.loc 5 633 20 view .LVU413
 1201 00ae 454A     		ldr	r2, .L57+52
 635:my_pedal.cpp  ****     tremolo.SetDepth(g_tremDepth);
 1202              		.loc 5 635 36 view .LVU414
 1203 00b0 B5EEC07A 		vcmpe.f32	s14, #0
 636:my_pedal.cpp  ****     tremolo.SetFreq(g_tremRate);
 1204              		.loc 5 636 21 view .LVU415
 1205 00b4 4448     		ldr	r0, .L57+56
 630:my_pedal.cpp  ****     if (ds < 1) ds = 1;
 1206              		.loc 5 630 43 view .LVU416
 1207 00b6 67EEA67A 		vmul.f32	s15, s15, s13
 630:my_pedal.cpp  ****     if (ds < 1) ds = 1;
 1208              		.loc 5 630 57 view .LVU417
 1209 00ba FDEEE77A 		vcvt.s32.f32	s15, s15
 1210 00be 17EE903A 		vmov	r3, s15	@ int
 1211 00c2 8B42     		cmp	r3, r1
 1212 00c4 A8BF     		it	ge
 1213 00c6 0B46     		movge	r3, r1
 1214 00c8 012B     		cmp	r3, #1
 1215 00ca B8BF     		it	lt
 1216 00cc 0123     		movlt	r3, #1
 1217              	.LVL58:
 633:my_pedal.cpp  **** 
 1218              		.loc 5 633 5 is_stmt 1 view .LVU418
 635:my_pedal.cpp  ****     tremolo.SetDepth(g_tremDepth);
 1219              		.loc 5 635 36 is_stmt 0 view .LVU419
 1220 00ce F1EE10FA 		vmrs	APSR_nzcv, FPSCR
 633:my_pedal.cpp  **** 
 1221              		.loc 5 633 20 view .LVU420
 1222 00d2 1360     		str	r3, [r2]
 635:my_pedal.cpp  ****     tremolo.SetDepth(g_tremDepth);
 1223              		.loc 5 635 5 is_stmt 1 view .LVU421
 635:my_pedal.cpp  ****     tremolo.SetDepth(g_tremDepth);
 1224              		.loc 5 635 36 is_stmt 0 view .LVU422
 1225 00d4 D8BF     		it	le
 1226 00d6 B1EE047A 		vmovle.f32	s14, #5.0e+0
 635:my_pedal.cpp  ****     tremolo.SetDepth(g_tremDepth);
 1227              		.loc 5 635 16 view .LVU423
 1228 00da 85ED007A 		vstr.32	s14, [r5]
 636:my_pedal.cpp  ****     tremolo.SetFreq(g_tremRate);
 1229              		.loc 5 636 5 is_stmt 1 view .LVU424
 636:my_pedal.cpp  ****     tremolo.SetFreq(g_tremRate);
 1230              		.loc 5 636 21 is_stmt 0 view .LVU425
 1231 00de 94ED000A 		vldr.32	s0, [r4]
 1232 00e2 FFF7FEFF 		bl	_ZN7daisysp7Tremolo8SetDepthEf
 1233              	.LVL59:
 637:my_pedal.cpp  ****     g_tremOn = g_tremDepth > 0.001f;
 1234              		.loc 5 637 5 is_stmt 1 view .LVU426
 637:my_pedal.cpp  ****     g_tremOn = g_tremDepth > 0.001f;
 1235              		.loc 5 637 20 is_stmt 0 view .LVU427
ARM GAS  /var/folders/cn/msls48b51jq2dpk8d4mt2d4w0000gn/T//cczoUJhV.s 			page 48


 1236 00e6 95ED000A 		vldr.32	s0, [r5]
 1237 00ea 3748     		ldr	r0, .L57+56
 1238 00ec FFF7FEFF 		bl	_ZN7daisysp7Tremolo7SetFreqEf
 1239              	.LVL60:
 638:my_pedal.cpp  **** 
 1240              		.loc 5 638 5 is_stmt 1 view .LVU428
 638:my_pedal.cpp  **** 
 1241              		.loc 5 638 16 is_stmt 0 view .LVU429
 1242 00f0 94ED007A 		vldr.32	s14, [r4]
 638:my_pedal.cpp  **** 
 1243              		.loc 5 638 28 view .LVU430
 1244 00f4 DFED327A 		vldr.32	s15, .L57+48
 641:my_pedal.cpp  **** 
 1245              		.loc 5 641 17 view .LVU431
 1246 00f8 119C     		ldr	r4, [sp, #68]	@ float
 638:my_pedal.cpp  **** 
 1247              		.loc 5 638 28 view .LVU432
 1248 00fa B4EEE77A 		vcmpe.f32	s14, s15
 641:my_pedal.cpp  **** 
 1249              		.loc 5 641 38 view .LVU433
 1250 00fe 1298     		ldr	r0, [sp, #72]	@ float
 641:my_pedal.cpp  **** 
 1251              		.loc 5 641 13 view .LVU434
 1252 0100 3249     		ldr	r1, .L57+60
 641:my_pedal.cpp  **** 
 1253              		.loc 5 641 34 view .LVU435
 1254 0102 334A     		ldr	r2, .L57+64
 638:my_pedal.cpp  **** 
 1255              		.loc 5 638 28 view .LVU436
 1256 0104 F1EE10FA 		vmrs	APSR_nzcv, FPSCR
 638:my_pedal.cpp  **** 
 1257              		.loc 5 638 14 view .LVU437
 1258 0108 324B     		ldr	r3, .L57+68
 638:my_pedal.cpp  **** 
 1259              		.loc 5 638 28 view .LVU438
 1260 010a CCBF     		ite	gt
 1261 010c 0125     		movgt	r5, #1
 1262 010e 0025     		movle	r5, #0
 638:my_pedal.cpp  **** 
 1263              		.loc 5 638 14 view .LVU439
 1264 0110 1D70     		strb	r5, [r3]
 641:my_pedal.cpp  **** 
 1265              		.loc 5 641 5 is_stmt 1 view .LVU440
 641:my_pedal.cpp  **** 
 1266              		.loc 5 641 13 is_stmt 0 view .LVU441
 1267 0112 0C60     		str	r4, [r1]	@ float
 641:my_pedal.cpp  **** 
 1268              		.loc 5 641 24 is_stmt 1 view .LVU442
 641:my_pedal.cpp  **** 
 1269              		.loc 5 641 57 is_stmt 0 view .LVU443
 1270 0114 304B     		ldr	r3, .L57+72
 641:my_pedal.cpp  **** 
 1271              		.loc 5 641 34 view .LVU444
 1272 0116 1060     		str	r0, [r2]	@ float
 641:my_pedal.cpp  **** 
 1273              		.loc 5 641 47 is_stmt 1 view .LVU445
 641:my_pedal.cpp  **** 
ARM GAS  /var/folders/cn/msls48b51jq2dpk8d4mt2d4w0000gn/T//cczoUJhV.s 			page 49


 1274              		.loc 5 641 57 is_stmt 0 view .LVU446
 1275 0118 0D68     		ldr	r5, [r1]	@ float
 644:my_pedal.cpp  **** 
 1276              		.loc 5 644 17 view .LVU447
 1277 011a 0E9C     		ldr	r4, [sp, #56]	@ float
 641:my_pedal.cpp  **** 
 1278              		.loc 5 641 80 view .LVU448
 1279 011c 1068     		ldr	r0, [r2]	@ float
 641:my_pedal.cpp  **** 
 1280              		.loc 5 641 57 view .LVU449
 1281 011e 43F8085B 		str	r5, [r3], #8	@ float
 641:my_pedal.cpp  **** 
 1282              		.loc 5 641 68 is_stmt 1 view .LVU450
 644:my_pedal.cpp  **** 
 1283              		.loc 5 644 13 is_stmt 0 view .LVU451
 1284 0122 2E49     		ldr	r1, .L57+76
 644:my_pedal.cpp  **** 
 1285              		.loc 5 644 36 view .LVU452
 1286 0124 0F9D     		ldr	r5, [sp, #60]	@ float
 644:my_pedal.cpp  **** 
 1287              		.loc 5 644 32 view .LVU453
 1288 0126 2E4A     		ldr	r2, .L57+80
 644:my_pedal.cpp  **** 
 1289              		.loc 5 644 13 view .LVU454
 1290 0128 0C60     		str	r4, [r1]	@ float
 641:my_pedal.cpp  **** 
 1291              		.loc 5 641 80 view .LVU455
 1292 012a 1860     		str	r0, [r3]	@ float
 644:my_pedal.cpp  **** 
 1293              		.loc 5 644 5 is_stmt 1 view .LVU456
 644:my_pedal.cpp  **** 
 1294              		.loc 5 644 24 view .LVU457
 644:my_pedal.cpp  **** 
 1295              		.loc 5 644 43 view .LVU458
 644:my_pedal.cpp  **** 
 1296              		.loc 5 644 32 is_stmt 0 view .LVU459
 1297 012c 1560     		str	r5, [r2]	@ float
 644:my_pedal.cpp  **** 
 1298              		.loc 5 644 56 view .LVU460
 1299 012e 1099     		ldr	r1, [sp, #64]	@ float
 647:my_pedal.cpp  ****     g_phaserMix = t.phaserMix; g_phaserRate = t.phaserRate; g_phaserDepth = t.phaserDepth; g_phaser
 1300              		.loc 5 647 21 view .LVU461
 1301 0130 139C     		ldr	r4, [sp, #76]	@ float
 644:my_pedal.cpp  **** 
 1302              		.loc 5 644 52 view .LVU462
 1303 0132 2C4A     		ldr	r2, .L57+84
 647:my_pedal.cpp  ****     g_phaserMix = t.phaserMix; g_phaserRate = t.phaserRate; g_phaserDepth = t.phaserDepth; g_phaser
 1304              		.loc 5 647 17 view .LVU463
 1305 0134 2C4B     		ldr	r3, .L57+88
 644:my_pedal.cpp  **** 
 1306              		.loc 5 644 52 view .LVU464
 1307 0136 1160     		str	r1, [r2]	@ float
 647:my_pedal.cpp  ****     g_phaserMix = t.phaserMix; g_phaserRate = t.phaserRate; g_phaserDepth = t.phaserDepth; g_phaser
 1308              		.loc 5 647 5 is_stmt 1 view .LVU465
 647:my_pedal.cpp  ****     g_phaserMix = t.phaserMix; g_phaserRate = t.phaserRate; g_phaserDepth = t.phaserDepth; g_phaser
 1309              		.loc 5 647 49 is_stmt 0 view .LVU466
 1310 0138 1498     		ldr	r0, [sp, #80]	@ float
ARM GAS  /var/folders/cn/msls48b51jq2dpk8d4mt2d4w0000gn/T//cczoUJhV.s 			page 50


 647:my_pedal.cpp  ****     g_phaserMix = t.phaserMix; g_phaserRate = t.phaserRate; g_phaserDepth = t.phaserDepth; g_phaser
 1311              		.loc 5 647 17 view .LVU467
 1312 013a 1C60     		str	r4, [r3]	@ float
 647:my_pedal.cpp  ****     g_phaserMix = t.phaserMix; g_phaserRate = t.phaserRate; g_phaserDepth = t.phaserDepth; g_phaser
 1313              		.loc 5 647 32 is_stmt 1 view .LVU468
 647:my_pedal.cpp  ****     g_phaserMix = t.phaserMix; g_phaserRate = t.phaserRate; g_phaserDepth = t.phaserDepth; g_phaser
 1314              		.loc 5 647 45 is_stmt 0 view .LVU469
 1315 013c 2B4B     		ldr	r3, .L57+92
 647:my_pedal.cpp  ****     g_phaserMix = t.phaserMix; g_phaserRate = t.phaserRate; g_phaserDepth = t.phaserDepth; g_phaser
 1316              		.loc 5 647 79 view .LVU470
 1317 013e 159D     		ldr	r5, [sp, #84]	@ float
 647:my_pedal.cpp  ****     g_phaserMix = t.phaserMix; g_phaserRate = t.phaserRate; g_phaserDepth = t.phaserDepth; g_phaser
 1318              		.loc 5 647 45 view .LVU471
 1319 0140 1860     		str	r0, [r3]	@ float
 647:my_pedal.cpp  ****     g_phaserMix = t.phaserMix; g_phaserRate = t.phaserRate; g_phaserDepth = t.phaserDepth; g_phaser
 1320              		.loc 5 647 61 is_stmt 1 view .LVU472
 647:my_pedal.cpp  ****     g_phaserMix = t.phaserMix; g_phaserRate = t.phaserRate; g_phaserDepth = t.phaserDepth; g_phaser
 1321              		.loc 5 647 75 is_stmt 0 view .LVU473
 1322 0142 2B4B     		ldr	r3, .L57+96
 648:my_pedal.cpp  ****     g_flangerMix = t.flangerMix; g_flangerRate = t.flangerRate; g_flangerDepth = t.flangerDepth; g_
 1323              		.loc 5 648 21 view .LVU474
 1324 0144 169A     		ldr	r2, [sp, #88]	@ float
 647:my_pedal.cpp  ****     g_phaserMix = t.phaserMix; g_phaserRate = t.phaserRate; g_phaserDepth = t.phaserDepth; g_phaser
 1325              		.loc 5 647 75 view .LVU475
 1326 0146 1D60     		str	r5, [r3]	@ float
 648:my_pedal.cpp  ****     g_flangerMix = t.flangerMix; g_flangerRate = t.flangerRate; g_flangerDepth = t.flangerDepth; g_
 1327              		.loc 5 648 5 is_stmt 1 view .LVU476
 648:my_pedal.cpp  ****     g_flangerMix = t.flangerMix; g_flangerRate = t.flangerRate; g_flangerDepth = t.flangerDepth; g_
 1328              		.loc 5 648 17 is_stmt 0 view .LVU477
 1329 0148 2A4B     		ldr	r3, .L57+100
 648:my_pedal.cpp  ****     g_flangerMix = t.flangerMix; g_flangerRate = t.flangerRate; g_flangerDepth = t.flangerDepth; g_
 1330              		.loc 5 648 49 view .LVU478
 1331 014a 1799     		ldr	r1, [sp, #92]	@ float
 648:my_pedal.cpp  ****     g_flangerMix = t.flangerMix; g_flangerRate = t.flangerRate; g_flangerDepth = t.flangerDepth; g_
 1332              		.loc 5 648 17 view .LVU479
 1333 014c 1A60     		str	r2, [r3]	@ float
 648:my_pedal.cpp  ****     g_flangerMix = t.flangerMix; g_flangerRate = t.flangerRate; g_flangerDepth = t.flangerDepth; g_
 1334              		.loc 5 648 32 is_stmt 1 view .LVU480
 648:my_pedal.cpp  ****     g_flangerMix = t.flangerMix; g_flangerRate = t.flangerRate; g_flangerDepth = t.flangerDepth; g_
 1335              		.loc 5 648 45 is_stmt 0 view .LVU481
 1336 014e 2A4B     		ldr	r3, .L57+104
 648:my_pedal.cpp  ****     g_flangerMix = t.flangerMix; g_flangerRate = t.flangerRate; g_flangerDepth = t.flangerDepth; g_
 1337              		.loc 5 648 79 view .LVU482
 1338 0150 189C     		ldr	r4, [sp, #96]	@ float
 648:my_pedal.cpp  ****     g_flangerMix = t.flangerMix; g_flangerRate = t.flangerRate; g_flangerDepth = t.flangerDepth; g_
 1339              		.loc 5 648 45 view .LVU483
 1340 0152 1960     		str	r1, [r3]	@ float
 648:my_pedal.cpp  ****     g_flangerMix = t.flangerMix; g_flangerRate = t.flangerRate; g_flangerDepth = t.flangerDepth; g_
 1341              		.loc 5 648 61 is_stmt 1 view .LVU484
 648:my_pedal.cpp  ****     g_flangerMix = t.flangerMix; g_flangerRate = t.flangerRate; g_flangerDepth = t.flangerDepth; g_
 1342              		.loc 5 648 75 is_stmt 0 view .LVU485
 1343 0154 294B     		ldr	r3, .L57+108
 648:my_pedal.cpp  ****     g_flangerMix = t.flangerMix; g_flangerRate = t.flangerRate; g_flangerDepth = t.flangerDepth; g_
 1344              		.loc 5 648 107 view .LVU486
 1345 0156 1998     		ldr	r0, [sp, #100]	@ float
 649:my_pedal.cpp  ****     g_compAmt = t.compAmt; g_boost = t.boost;
 1346              		.loc 5 649 22 view .LVU487
ARM GAS  /var/folders/cn/msls48b51jq2dpk8d4mt2d4w0000gn/T//cczoUJhV.s 			page 51


 1347 0158 1A9A     		ldr	r2, [sp, #104]	@ float
 648:my_pedal.cpp  ****     g_flangerMix = t.flangerMix; g_flangerRate = t.flangerRate; g_flangerDepth = t.flangerDepth; g_
 1348              		.loc 5 648 75 view .LVU488
 1349 015a 1C60     		str	r4, [r3]	@ float
 648:my_pedal.cpp  ****     g_flangerMix = t.flangerMix; g_flangerRate = t.flangerRate; g_flangerDepth = t.flangerDepth; g_
 1350              		.loc 5 648 92 is_stmt 1 view .LVU489
 648:my_pedal.cpp  ****     g_flangerMix = t.flangerMix; g_flangerRate = t.flangerRate; g_flangerDepth = t.flangerDepth; g_
 1351              		.loc 5 648 103 is_stmt 0 view .LVU490
 1352 015c 2849     		ldr	r1, .L57+112
 649:my_pedal.cpp  ****     g_compAmt = t.compAmt; g_boost = t.boost;
 1353              		.loc 5 649 18 view .LVU491
 1354 015e 294B     		ldr	r3, .L57+116
 648:my_pedal.cpp  ****     g_flangerMix = t.flangerMix; g_flangerRate = t.flangerRate; g_flangerDepth = t.flangerDepth; g_
 1355              		.loc 5 648 103 view .LVU492
 1356 0160 0860     		str	r0, [r1]	@ float
 649:my_pedal.cpp  ****     g_compAmt = t.compAmt; g_boost = t.boost;
 1357              		.loc 5 649 5 is_stmt 1 view .LVU493
 649:my_pedal.cpp  ****     g_compAmt = t.compAmt; g_boost = t.boost;
 1358              		.loc 5 649 18 is_stmt 0 view .LVU494
 1359 0162 1A60     		str	r2, [r3]	@ float
 649:my_pedal.cpp  ****     g_compAmt = t.compAmt; g_boost = t.boost;
 1360              		.loc 5 649 34 is_stmt 1 view .LVU495
 649:my_pedal.cpp  ****     g_compAmt = t.compAmt; g_boost = t.boost;
 1361              		.loc 5 649 48 is_stmt 0 view .LVU496
 1362 0164 2849     		ldr	r1, .L57+120
 649:my_pedal.cpp  ****     g_compAmt = t.compAmt; g_boost = t.boost;
 1363              		.loc 5 649 52 view .LVU497
 1364 0166 1B9C     		ldr	r4, [sp, #108]	@ float
 649:my_pedal.cpp  ****     g_compAmt = t.compAmt; g_boost = t.boost;
 1365              		.loc 5 649 80 view .LVU498
 1366 0168 284B     		ldr	r3, .L57+124
 649:my_pedal.cpp  ****     g_compAmt = t.compAmt; g_boost = t.boost;
 1367              		.loc 5 649 84 view .LVU499
 1368 016a 1C9A     		ldr	r2, [sp, #112]	@ float
 649:my_pedal.cpp  ****     g_compAmt = t.compAmt; g_boost = t.boost;
 1369              		.loc 5 649 48 view .LVU500
 1370 016c 0C60     		str	r4, [r1]	@ float
 649:my_pedal.cpp  ****     g_compAmt = t.compAmt; g_boost = t.boost;
 1371              		.loc 5 649 65 is_stmt 1 view .LVU501
 649:my_pedal.cpp  ****     g_compAmt = t.compAmt; g_boost = t.boost;
 1372              		.loc 5 649 110 is_stmt 0 view .LVU502
 1373 016e 2848     		ldr	r0, .L57+128
 649:my_pedal.cpp  ****     g_compAmt = t.compAmt; g_boost = t.boost;
 1374              		.loc 5 649 80 view .LVU503
 1375 0170 1A60     		str	r2, [r3]	@ float
 649:my_pedal.cpp  ****     g_compAmt = t.compAmt; g_boost = t.boost;
 1376              		.loc 5 649 98 is_stmt 1 view .LVU504
 649:my_pedal.cpp  ****     g_compAmt = t.compAmt; g_boost = t.boost;
 1377              		.loc 5 649 114 is_stmt 0 view .LVU505
 1378 0172 1D9C     		ldr	r4, [sp, #116]	@ float
 650:my_pedal.cpp  ****     applyModParams();
 1379              		.loc 5 650 19 view .LVU506
 1380 0174 1E99     		ldr	r1, [sp, #120]	@ float
 650:my_pedal.cpp  ****     applyModParams();
 1381              		.loc 5 650 15 view .LVU507
 1382 0176 274B     		ldr	r3, .L57+132
 650:my_pedal.cpp  ****     applyModParams();
ARM GAS  /var/folders/cn/msls48b51jq2dpk8d4mt2d4w0000gn/T//cczoUJhV.s 			page 52


 1383              		.loc 5 650 40 view .LVU508
 1384 0178 1F9A     		ldr	r2, [sp, #124]	@ float
 649:my_pedal.cpp  ****     g_compAmt = t.compAmt; g_boost = t.boost;
 1385              		.loc 5 649 110 view .LVU509
 1386 017a 0460     		str	r4, [r0]	@ float
 650:my_pedal.cpp  ****     applyModParams();
 1387              		.loc 5 650 5 is_stmt 1 view .LVU510
 650:my_pedal.cpp  ****     applyModParams();
 1388              		.loc 5 650 15 is_stmt 0 view .LVU511
 1389 017c 1960     		str	r1, [r3]	@ float
 650:my_pedal.cpp  ****     applyModParams();
 1390              		.loc 5 650 28 is_stmt 1 view .LVU512
 650:my_pedal.cpp  ****     applyModParams();
 1391              		.loc 5 650 36 is_stmt 0 view .LVU513
 1392 017e 264B     		ldr	r3, .L57+136
 1393 0180 1A60     		str	r2, [r3]	@ float
 651:my_pedal.cpp  **** 
 1394              		.loc 5 651 5 is_stmt 1 view .LVU514
 651:my_pedal.cpp  **** 
 1395              		.loc 5 651 19 is_stmt 0 view .LVU515
 1396 0182 FFF7FEFF 		bl	_ZL14applyModParamsv
 1397              	.LVL61:
 653:my_pedal.cpp  **** }
 1398              		.loc 5 653 5 is_stmt 1 view .LVU516
 653:my_pedal.cpp  **** }
 1399              		.loc 5 653 17 is_stmt 0 view .LVU517
 1400 0186 254B     		ldr	r3, .L57+140
 1401 0188 0122     		movs	r2, #1
 1402 018a 1A70     		strb	r2, [r3]
 654:my_pedal.cpp  **** 
 1403              		.loc 5 654 1 view .LVU518
 1404 018c 21B0     		add	sp, sp, #132
 1405              		.cfi_def_cfa_offset 12
 1406              		@ sp needed
 1407 018e 30BD     		pop	{r4, r5, pc}
 1408              	.L58:
 1409              		.align	2
 1410              	.L57:
 1411 0190 00000000 		.word	.LANCHOR18
 1412 0194 00000000 		.word	.LANCHOR20
 1413 0198 00000000 		.word	.LANCHOR33
 1414 019c 00000000 		.word	.LANCHOR34
 1415 01a0 00000000 		.word	.LANCHOR14
 1416 01a4 00006144 		.word	1147207680
 1417 01a8 00000000 		.word	.LANCHOR15
 1418 01ac 00000000 		.word	.LANCHOR16
 1419 01b0 00000000 		.word	.LANCHOR17
 1420 01b4 00009643 		.word	1133903872
 1421 01b8 00000000 		.word	.LANCHOR2
 1422 01bc 00000000 		.word	.LANCHOR19
 1423 01c0 6F12833A 		.word	981668463
 1424 01c4 00000000 		.word	.LANCHOR35
 1425 01c8 00000000 		.word	.LANCHOR36
 1426 01cc 00000000 		.word	.LANCHOR24
 1427 01d0 00000000 		.word	.LANCHOR25
 1428 01d4 00000000 		.word	.LANCHOR37
 1429 01d8 686B0000 		.word	_ZL6reverb+27496
ARM GAS  /var/folders/cn/msls48b51jq2dpk8d4mt2d4w0000gn/T//cczoUJhV.s 			page 53


 1430 01dc 00000000 		.word	.LANCHOR21
 1431 01e0 00000000 		.word	.LANCHOR22
 1432 01e4 00000000 		.word	.LANCHOR23
 1433 01e8 00000000 		.word	.LANCHOR26
 1434 01ec 00000000 		.word	.LANCHOR5
 1435 01f0 00000000 		.word	.LANCHOR6
 1436 01f4 00000000 		.word	.LANCHOR27
 1437 01f8 00000000 		.word	.LANCHOR7
 1438 01fc 00000000 		.word	.LANCHOR8
 1439 0200 00000000 		.word	.LANCHOR9
 1440 0204 00000000 		.word	.LANCHOR28
 1441 0208 00000000 		.word	.LANCHOR10
 1442 020c 00000000 		.word	.LANCHOR12
 1443 0210 00000000 		.word	.LANCHOR13
 1444 0214 00000000 		.word	.LANCHOR29
 1445 0218 00000000 		.word	.LANCHOR30
 1446 021c 00000000 		.word	.LANCHOR38
 1447              		.cfi_endproc
 1448              	.LFE14385:
 1450              		.section	.text._ZL8gotoTonei,"ax",%progbits
 1451              		.align	1
 1452              		.p2align 2,,3
 1453              		.syntax unified
 1454              		.thumb
 1455              		.thumb_func
 1457              	_ZL8gotoTonei:
 1458              	.LVL62:
 1459              	.LFB14386:
 658:my_pedal.cpp  ****     if (g_currentSong < 0 || g_currentSong >= MAX_PRESETS_TOTAL) return;
 1460              		.loc 5 658 1 is_stmt 1 view -0
 1461              		.cfi_startproc
 1462              		@ args = 0, pretend = 0, frame = 0
 1463              		@ frame_needed = 0, uses_anonymous_args = 0
 1464              		@ link register save eliminated.
 659:my_pedal.cpp  ****     int base = g_toneFirst[g_currentSong];
 1465              		.loc 5 659 5 view .LVU520
 658:my_pedal.cpp  ****     if (g_currentSong < 0 || g_currentSong >= MAX_PRESETS_TOTAL) return;
 1466              		.loc 5 658 1 is_stmt 0 view .LVU521
 1467 0000 10B4     		push	{r4}
 1468              		.cfi_def_cfa_offset 4
 1469              		.cfi_offset 4, -4
 659:my_pedal.cpp  ****     int base = g_toneFirst[g_currentSong];
 1470              		.loc 5 659 27 view .LVU522
 1471 0002 104C     		ldr	r4, .L71
 1472 0004 2368     		ldr	r3, [r4]
 659:my_pedal.cpp  ****     int base = g_toneFirst[g_currentSong];
 1473              		.loc 5 659 5 view .LVU523
 1474 0006 2B2B     		cmp	r3, #43
 1475 0008 18D8     		bhi	.L59
 660:my_pedal.cpp  ****     int cnt = g_toneCount[g_currentSong];
 1476              		.loc 5 660 5 is_stmt 1 view .LVU524
 660:my_pedal.cpp  ****     int cnt = g_toneCount[g_currentSong];
 1477              		.loc 5 660 9 is_stmt 0 view .LVU525
 1478 000a 0F49     		ldr	r1, .L71+4
 661:my_pedal.cpp  ****     if (cnt < 1) cnt = 1;
 1479              		.loc 5 661 9 view .LVU526
 1480 000c 0F4A     		ldr	r2, .L71+8
ARM GAS  /var/folders/cn/msls48b51jq2dpk8d4mt2d4w0000gn/T//cczoUJhV.s 			page 54


 660:my_pedal.cpp  ****     int cnt = g_toneCount[g_currentSong];
 1481              		.loc 5 660 9 view .LVU527
 1482 000e 51F82310 		ldr	r1, [r1, r3, lsl #2]
 1483              	.LVL63:
 661:my_pedal.cpp  ****     if (cnt < 1) cnt = 1;
 1484              		.loc 5 661 5 is_stmt 1 view .LVU528
 661:my_pedal.cpp  ****     if (cnt < 1) cnt = 1;
 1485              		.loc 5 661 9 is_stmt 0 view .LVU529
 1486 0012 52F82320 		ldr	r2, [r2, r3, lsl #2]
 1487              	.LVL64:
 662:my_pedal.cpp  ****     int ti = g_currentSong - base + delta;
 1488              		.loc 5 662 5 is_stmt 1 view .LVU530
 663:my_pedal.cpp  ****     while (ti < 0) ti += cnt;
 1489              		.loc 5 663 28 is_stmt 0 view .LVU531
 1490 0016 5B1A     		subs	r3, r3, r1
 1491 0018 012A     		cmp	r2, #1
 1492 001a B8BF     		it	lt
 1493 001c 0122     		movlt	r2, #1
 1494              	.LVL65:
 663:my_pedal.cpp  ****     while (ti < 0) ti += cnt;
 1495              		.loc 5 663 5 is_stmt 1 view .LVU532
 664:my_pedal.cpp  ****     while (ti >= cnt) ti -= cnt;
 1496              		.loc 5 664 5 view .LVU533
 664:my_pedal.cpp  ****     while (ti >= cnt) ti -= cnt;
 1497              		.loc 5 664 15 view .LVU534
 1498 001e 1818     		adds	r0, r3, r0
 1499              	.LVL66:
 664:my_pedal.cpp  ****     while (ti >= cnt) ti -= cnt;
 1500              		.loc 5 664 15 is_stmt 0 view .LVU535
 1501 0020 04D5     		bpl	.L69
 1502              	.LVL67:
 1503              	.L61:
 664:my_pedal.cpp  ****     while (ti >= cnt) ti -= cnt;
 1504              		.loc 5 664 20 is_stmt 1 discriminator 1 view .LVU536
 664:my_pedal.cpp  ****     while (ti >= cnt) ti -= cnt;
 1505              		.loc 5 664 5 discriminator 1 view .LVU537
 664:my_pedal.cpp  ****     while (ti >= cnt) ti -= cnt;
 1506              		.loc 5 664 15 discriminator 1 view .LVU538
 1507 0022 8018     		adds	r0, r0, r2
 1508              	.LVL68:
 664:my_pedal.cpp  ****     while (ti >= cnt) ti -= cnt;
 1509              		.loc 5 664 15 is_stmt 0 discriminator 1 view .LVU539
 1510 0024 FDD4     		bmi	.L61
 665:my_pedal.cpp  ****     g_currentSong = base + ti;
 1511              		.loc 5 665 5 is_stmt 1 view .LVU540
 665:my_pedal.cpp  ****     g_currentSong = base + ti;
 1512              		.loc 5 665 15 view .LVU541
 1513 0026 8242     		cmp	r2, r0
 1514 0028 02DC     		bgt	.L70
 1515              	.L63:
 665:my_pedal.cpp  ****     g_currentSong = base + ti;
 1516              		.loc 5 665 23 discriminator 1 view .LVU542
 665:my_pedal.cpp  ****     g_currentSong = base + ti;
 1517              		.loc 5 665 26 is_stmt 0 discriminator 1 view .LVU543
 1518 002a 801A     		subs	r0, r0, r2
 1519              	.LVL69:
 1520              	.L69:
ARM GAS  /var/folders/cn/msls48b51jq2dpk8d4mt2d4w0000gn/T//cczoUJhV.s 			page 55


 665:my_pedal.cpp  ****     g_currentSong = base + ti;
 1521              		.loc 5 665 5 is_stmt 1 discriminator 1 view .LVU544
 665:my_pedal.cpp  ****     g_currentSong = base + ti;
 1522              		.loc 5 665 15 discriminator 1 view .LVU545
 1523 002c 8242     		cmp	r2, r0
 1524 002e FCDD     		ble	.L63
 1525              	.L70:
 666:my_pedal.cpp  ****     applySong(g_currentSong);
 1526              		.loc 5 666 5 view .LVU546
 666:my_pedal.cpp  ****     applySong(g_currentSong);
 1527              		.loc 5 666 26 is_stmt 0 view .LVU547
 1528 0030 0844     		add	r0, r0, r1
 1529              	.LVL70:
 666:my_pedal.cpp  ****     applySong(g_currentSong);
 1530              		.loc 5 666 19 view .LVU548
 1531 0032 2060     		str	r0, [r4]
 667:my_pedal.cpp  **** }
 1532              		.loc 5 667 5 is_stmt 1 view .LVU549
 668:my_pedal.cpp  **** 
 1533              		.loc 5 668 1 is_stmt 0 view .LVU550
 1534 0034 5DF8044B 		ldr	r4, [sp], #4
 1535              		.cfi_remember_state
 1536              		.cfi_restore 4
 1537              		.cfi_def_cfa_offset 0
 667:my_pedal.cpp  **** }
 1538              		.loc 5 667 14 view .LVU551
 1539 0038 FFF7FEBF 		b	_ZL9applySongi
 1540              	.LVL71:
 1541              	.L59:
 1542              		.cfi_restore_state
 668:my_pedal.cpp  **** 
 1543              		.loc 5 668 1 view .LVU552
 1544 003c 5DF8044B 		ldr	r4, [sp], #4
 1545              		.cfi_restore 4
 1546              		.cfi_def_cfa_offset 0
 1547 0040 7047     		bx	lr
 1548              	.L72:
 1549 0042 00BF     		.align	2
 1550              	.L71:
 1551 0044 00000000 		.word	.LANCHOR39
 1552 0048 00000000 		.word	.LANCHOR40
 1553 004c 00000000 		.word	.LANCHOR41
 1554              		.cfi_endproc
 1555              	.LFE14386:
 1557              		.section	.text._ZL8gotoSongi,"ax",%progbits
 1558              		.align	1
 1559              		.p2align 2,,3
 1560              		.syntax unified
 1561              		.thumb
 1562              		.thumb_func
 1564              	_ZL8gotoSongi:
 1565              	.LVL72:
 1566              	.LFB14387:
 672:my_pedal.cpp  ****     if (g_songCount <= 0) return;
 1567              		.loc 5 672 1 is_stmt 1 view -0
 1568              		.cfi_startproc
 1569              		@ args = 0, pretend = 0, frame = 0
ARM GAS  /var/folders/cn/msls48b51jq2dpk8d4mt2d4w0000gn/T//cczoUJhV.s 			page 56


 1570              		@ frame_needed = 0, uses_anonymous_args = 0
 1571              		@ link register save eliminated.
 673:my_pedal.cpp  ****     int no = g_songNo[g_currentSong] - 1 + delta;
 1572              		.loc 5 673 5 view .LVU554
 673:my_pedal.cpp  ****     int no = g_songNo[g_currentSong] - 1 + delta;
 1573              		.loc 5 673 21 is_stmt 0 view .LVU555
 1574 0000 0E4B     		ldr	r3, .L87
 1575 0002 1A68     		ldr	r2, [r3]
 673:my_pedal.cpp  ****     int no = g_songNo[g_currentSong] - 1 + delta;
 1576              		.loc 5 673 5 view .LVU556
 1577 0004 002A     		cmp	r2, #0
 1578 0006 17DD     		ble	.L73
 674:my_pedal.cpp  ****     while (no < 0) no += g_songCount;
 1579              		.loc 5 674 5 is_stmt 1 view .LVU557
 674:my_pedal.cpp  ****     while (no < 0) no += g_songCount;
 1580              		.loc 5 674 36 is_stmt 0 view .LVU558
 1581 0008 0D49     		ldr	r1, .L87+4
 1582 000a 0E4B     		ldr	r3, .L87+8
 672:my_pedal.cpp  ****     if (g_songCount <= 0) return;
 1583              		.loc 5 672 1 view .LVU559
 1584 000c 10B4     		push	{r4}
 1585              		.cfi_def_cfa_offset 4
 1586              		.cfi_offset 4, -4
 674:my_pedal.cpp  ****     while (no < 0) no += g_songCount;
 1587              		.loc 5 674 38 view .LVU560
 1588 000e 0C68     		ldr	r4, [r1]
 1589 0010 53F82430 		ldr	r3, [r3, r4, lsl #2]
 1590 0014 013B     		subs	r3, r3, #1
 1591              	.LVL73:
 675:my_pedal.cpp  ****     while (no >= g_songCount) no -= g_songCount;
 1592              		.loc 5 675 5 is_stmt 1 view .LVU561
 675:my_pedal.cpp  ****     while (no >= g_songCount) no -= g_songCount;
 1593              		.loc 5 675 15 view .LVU562
 1594 0016 1818     		adds	r0, r3, r0
 1595              	.LVL74:
 675:my_pedal.cpp  ****     while (no >= g_songCount) no -= g_songCount;
 1596              		.loc 5 675 15 is_stmt 0 view .LVU563
 1597 0018 04D5     		bpl	.L85
 1598              	.LVL75:
 1599              	.L75:
 675:my_pedal.cpp  ****     while (no >= g_songCount) no -= g_songCount;
 1600              		.loc 5 675 20 is_stmt 1 discriminator 1 view .LVU564
 675:my_pedal.cpp  ****     while (no >= g_songCount) no -= g_songCount;
 1601              		.loc 5 675 5 discriminator 1 view .LVU565
 675:my_pedal.cpp  ****     while (no >= g_songCount) no -= g_songCount;
 1602              		.loc 5 675 15 discriminator 1 view .LVU566
 1603 001a 8018     		adds	r0, r0, r2
 1604              	.LVL76:
 675:my_pedal.cpp  ****     while (no >= g_songCount) no -= g_songCount;
 1605              		.loc 5 675 15 is_stmt 0 discriminator 1 view .LVU567
 1606 001c FDD4     		bmi	.L75
 676:my_pedal.cpp  ****     g_currentSong = g_songFirstList[no];
 1607              		.loc 5 676 5 is_stmt 1 view .LVU568
 676:my_pedal.cpp  ****     g_currentSong = g_songFirstList[no];
 1608              		.loc 5 676 15 view .LVU569
 1609 001e 8242     		cmp	r2, r0
 1610 0020 02DC     		bgt	.L86
ARM GAS  /var/folders/cn/msls48b51jq2dpk8d4mt2d4w0000gn/T//cczoUJhV.s 			page 57


 1611              	.L77:
 676:my_pedal.cpp  ****     g_currentSong = g_songFirstList[no];
 1612              		.loc 5 676 31 discriminator 1 view .LVU570
 676:my_pedal.cpp  ****     g_currentSong = g_songFirstList[no];
 1613              		.loc 5 676 34 is_stmt 0 discriminator 1 view .LVU571
 1614 0022 801A     		subs	r0, r0, r2
 1615              	.LVL77:
 1616              	.L85:
 676:my_pedal.cpp  ****     g_currentSong = g_songFirstList[no];
 1617              		.loc 5 676 5 is_stmt 1 discriminator 1 view .LVU572
 676:my_pedal.cpp  ****     g_currentSong = g_songFirstList[no];
 1618              		.loc 5 676 15 discriminator 1 view .LVU573
 1619 0024 8242     		cmp	r2, r0
 1620 0026 FCDD     		ble	.L77
 1621              	.L86:
 677:my_pedal.cpp  ****     applySong(g_currentSong);
 1622              		.loc 5 677 5 view .LVU574
 677:my_pedal.cpp  ****     applySong(g_currentSong);
 1623              		.loc 5 677 39 is_stmt 0 view .LVU575
 1624 0028 074B     		ldr	r3, .L87+12
 679:my_pedal.cpp  **** 
 1625              		.loc 5 679 1 view .LVU576
 1626 002a 5DF8044B 		ldr	r4, [sp], #4
 1627              		.cfi_restore 4
 1628              		.cfi_def_cfa_offset 0
 677:my_pedal.cpp  ****     applySong(g_currentSong);
 1629              		.loc 5 677 39 view .LVU577
 1630 002e 53F82000 		ldr	r0, [r3, r0, lsl #2]
 1631              	.LVL78:
 677:my_pedal.cpp  ****     applySong(g_currentSong);
 1632              		.loc 5 677 19 view .LVU578
 1633 0032 0860     		str	r0, [r1]
 678:my_pedal.cpp  **** }
 1634              		.loc 5 678 5 is_stmt 1 view .LVU579
 678:my_pedal.cpp  **** }
 1635              		.loc 5 678 14 is_stmt 0 view .LVU580
 1636 0034 FFF7FEBF 		b	_ZL9applySongi
 1637              	.LVL79:
 1638              	.L73:
 678:my_pedal.cpp  **** }
 1639              		.loc 5 678 14 view .LVU581
 1640 0038 7047     		bx	lr
 1641              	.L88:
 1642 003a 00BF     		.align	2
 1643              	.L87:
 1644 003c 00000000 		.word	.LANCHOR42
 1645 0040 00000000 		.word	.LANCHOR39
 1646 0044 00000000 		.word	.LANCHOR43
 1647 0048 00000000 		.word	.LANCHOR44
 1648              		.cfi_endproc
 1649              	.LFE14387:
 1651              		.section	.text._ZN5daisy21OneBitGraphicsDisplay9SetCursorEtt.constprop.0,"ax",%progbits
 1652              		.align	1
 1653              		.p2align 2,,3
 1654              		.syntax unified
 1655              		.thumb
 1656              		.thumb_func
ARM GAS  /var/folders/cn/msls48b51jq2dpk8d4mt2d4w0000gn/T//cczoUJhV.s 			page 58


 1658              	_ZN5daisy21OneBitGraphicsDisplay9SetCursorEtt.constprop.0:
 1659              	.LVL80:
 1660              	.LFB17102:
 1661              		.file 8 "../VCOM-G1/GuitarPedal/libDaisy/src/hid/disp/display.h"
   1:../VCOM-G1/GuitarPedal/libDaisy/src/hid/disp/display.h **** #pragma once
   2:../VCOM-G1/GuitarPedal/libDaisy/src/hid/disp/display.h **** #ifndef DSY_DISPLAY_H
   3:../VCOM-G1/GuitarPedal/libDaisy/src/hid/disp/display.h **** #define DSY_DISPLAY_H /**< Macro */
   4:../VCOM-G1/GuitarPedal/libDaisy/src/hid/disp/display.h **** #include <cmath>
   5:../VCOM-G1/GuitarPedal/libDaisy/src/hid/disp/display.h **** #include "util/oled_fonts.h"
   6:../VCOM-G1/GuitarPedal/libDaisy/src/hid/disp/display.h **** #include "daisy_core.h"
   7:../VCOM-G1/GuitarPedal/libDaisy/src/hid/disp/display.h **** #include "graphics_common.h"
   8:../VCOM-G1/GuitarPedal/libDaisy/src/hid/disp/display.h **** 
   9:../VCOM-G1/GuitarPedal/libDaisy/src/hid/disp/display.h **** #ifndef deg2rad
  10:../VCOM-G1/GuitarPedal/libDaisy/src/hid/disp/display.h **** #define deg2rad(deg) ((deg)*3.141592 / 180.0)
  11:../VCOM-G1/GuitarPedal/libDaisy/src/hid/disp/display.h **** #endif
  12:../VCOM-G1/GuitarPedal/libDaisy/src/hid/disp/display.h **** 
  13:../VCOM-G1/GuitarPedal/libDaisy/src/hid/disp/display.h **** namespace daisy
  14:../VCOM-G1/GuitarPedal/libDaisy/src/hid/disp/display.h **** {
  15:../VCOM-G1/GuitarPedal/libDaisy/src/hid/disp/display.h **** /** 
  16:../VCOM-G1/GuitarPedal/libDaisy/src/hid/disp/display.h ****  * This interface is used as a base class for all types of 1bit-per-pixel
  17:../VCOM-G1/GuitarPedal/libDaisy/src/hid/disp/display.h ****  * graphics displays.
  18:../VCOM-G1/GuitarPedal/libDaisy/src/hid/disp/display.h **** */
  19:../VCOM-G1/GuitarPedal/libDaisy/src/hid/disp/display.h **** class OneBitGraphicsDisplay
  20:../VCOM-G1/GuitarPedal/libDaisy/src/hid/disp/display.h **** {
  21:../VCOM-G1/GuitarPedal/libDaisy/src/hid/disp/display.h ****   public:
  22:../VCOM-G1/GuitarPedal/libDaisy/src/hid/disp/display.h ****     OneBitGraphicsDisplay() {}
  23:../VCOM-G1/GuitarPedal/libDaisy/src/hid/disp/display.h ****     virtual ~OneBitGraphicsDisplay() {}
  24:../VCOM-G1/GuitarPedal/libDaisy/src/hid/disp/display.h **** 
  25:../VCOM-G1/GuitarPedal/libDaisy/src/hid/disp/display.h ****     virtual uint16_t Height() const = 0;
  26:../VCOM-G1/GuitarPedal/libDaisy/src/hid/disp/display.h ****     virtual uint16_t Width() const  = 0;
  27:../VCOM-G1/GuitarPedal/libDaisy/src/hid/disp/display.h **** 
  28:../VCOM-G1/GuitarPedal/libDaisy/src/hid/disp/display.h ****     Rectangle GetBounds() const
  29:../VCOM-G1/GuitarPedal/libDaisy/src/hid/disp/display.h ****     {
  30:../VCOM-G1/GuitarPedal/libDaisy/src/hid/disp/display.h ****         return Rectangle(int16_t(Width()), int16_t(Height()));
  31:../VCOM-G1/GuitarPedal/libDaisy/src/hid/disp/display.h ****     }
  32:../VCOM-G1/GuitarPedal/libDaisy/src/hid/disp/display.h **** 
  33:../VCOM-G1/GuitarPedal/libDaisy/src/hid/disp/display.h **** 
  34:../VCOM-G1/GuitarPedal/libDaisy/src/hid/disp/display.h ****     size_t CurrentX() { return currentX_; };
  35:../VCOM-G1/GuitarPedal/libDaisy/src/hid/disp/display.h ****     size_t CurrentY() { return currentY_; };
  36:../VCOM-G1/GuitarPedal/libDaisy/src/hid/disp/display.h **** 
  37:../VCOM-G1/GuitarPedal/libDaisy/src/hid/disp/display.h ****     /** 
  38:../VCOM-G1/GuitarPedal/libDaisy/src/hid/disp/display.h ****     Fills the entire display with either on/off.
  39:../VCOM-G1/GuitarPedal/libDaisy/src/hid/disp/display.h ****     \param on Sets on or off.
  40:../VCOM-G1/GuitarPedal/libDaisy/src/hid/disp/display.h ****     */
  41:../VCOM-G1/GuitarPedal/libDaisy/src/hid/disp/display.h ****     virtual void Fill(bool on) = 0;
  42:../VCOM-G1/GuitarPedal/libDaisy/src/hid/disp/display.h **** 
  43:../VCOM-G1/GuitarPedal/libDaisy/src/hid/disp/display.h ****     /**
  44:../VCOM-G1/GuitarPedal/libDaisy/src/hid/disp/display.h ****     Sets the pixel at the specified coordinate to be on/off.
  45:../VCOM-G1/GuitarPedal/libDaisy/src/hid/disp/display.h ****     \param x   x Coordinate
  46:../VCOM-G1/GuitarPedal/libDaisy/src/hid/disp/display.h ****     \param y   y coordinate
  47:../VCOM-G1/GuitarPedal/libDaisy/src/hid/disp/display.h ****     \param on  on or off
  48:../VCOM-G1/GuitarPedal/libDaisy/src/hid/disp/display.h ****     */
  49:../VCOM-G1/GuitarPedal/libDaisy/src/hid/disp/display.h ****     virtual void DrawPixel(uint_fast8_t x, uint_fast8_t y, bool on) = 0;
  50:../VCOM-G1/GuitarPedal/libDaisy/src/hid/disp/display.h **** 
  51:../VCOM-G1/GuitarPedal/libDaisy/src/hid/disp/display.h ****     /**
  52:../VCOM-G1/GuitarPedal/libDaisy/src/hid/disp/display.h ****     Draws a line from (x1, y1) to (y1, y2)
  53:../VCOM-G1/GuitarPedal/libDaisy/src/hid/disp/display.h ****     \param x1  x Coordinate of the starting point
ARM GAS  /var/folders/cn/msls48b51jq2dpk8d4mt2d4w0000gn/T//cczoUJhV.s 			page 59


  54:../VCOM-G1/GuitarPedal/libDaisy/src/hid/disp/display.h ****     \param y1  y Coordinate of the starting point
  55:../VCOM-G1/GuitarPedal/libDaisy/src/hid/disp/display.h ****     \param x2  x Coordinate of the ending point
  56:../VCOM-G1/GuitarPedal/libDaisy/src/hid/disp/display.h ****     \param y2  y Coordinate of the ending point
  57:../VCOM-G1/GuitarPedal/libDaisy/src/hid/disp/display.h ****     \param on  on or off
  58:../VCOM-G1/GuitarPedal/libDaisy/src/hid/disp/display.h ****     */
  59:../VCOM-G1/GuitarPedal/libDaisy/src/hid/disp/display.h ****     virtual void DrawLine(uint_fast8_t x1,
  60:../VCOM-G1/GuitarPedal/libDaisy/src/hid/disp/display.h ****                           uint_fast8_t y1,
  61:../VCOM-G1/GuitarPedal/libDaisy/src/hid/disp/display.h ****                           uint_fast8_t x2,
  62:../VCOM-G1/GuitarPedal/libDaisy/src/hid/disp/display.h ****                           uint_fast8_t y2,
  63:../VCOM-G1/GuitarPedal/libDaisy/src/hid/disp/display.h ****                           bool         on)
  64:../VCOM-G1/GuitarPedal/libDaisy/src/hid/disp/display.h ****         = 0;
  65:../VCOM-G1/GuitarPedal/libDaisy/src/hid/disp/display.h **** 
  66:../VCOM-G1/GuitarPedal/libDaisy/src/hid/disp/display.h ****     /**
  67:../VCOM-G1/GuitarPedal/libDaisy/src/hid/disp/display.h ****     Draws a rectangle based on two coordinates.
  68:../VCOM-G1/GuitarPedal/libDaisy/src/hid/disp/display.h ****     \param x1 x Coordinate of the first point
  69:../VCOM-G1/GuitarPedal/libDaisy/src/hid/disp/display.h ****     \param y1 y Coordinate of the first point
  70:../VCOM-G1/GuitarPedal/libDaisy/src/hid/disp/display.h ****     \param x2 x Coordinate of the second point
  71:../VCOM-G1/GuitarPedal/libDaisy/src/hid/disp/display.h ****     \param y2 y Coordinate of the second point
  72:../VCOM-G1/GuitarPedal/libDaisy/src/hid/disp/display.h ****     \param on on or off
  73:../VCOM-G1/GuitarPedal/libDaisy/src/hid/disp/display.h ****     \param fill fill the rectangle or draw only the outline
  74:../VCOM-G1/GuitarPedal/libDaisy/src/hid/disp/display.h ****     */
  75:../VCOM-G1/GuitarPedal/libDaisy/src/hid/disp/display.h ****     virtual void DrawRect(uint_fast8_t x1,
  76:../VCOM-G1/GuitarPedal/libDaisy/src/hid/disp/display.h ****                           uint_fast8_t y1,
  77:../VCOM-G1/GuitarPedal/libDaisy/src/hid/disp/display.h ****                           uint_fast8_t x2,
  78:../VCOM-G1/GuitarPedal/libDaisy/src/hid/disp/display.h ****                           uint_fast8_t y2,
  79:../VCOM-G1/GuitarPedal/libDaisy/src/hid/disp/display.h ****                           bool         on,
  80:../VCOM-G1/GuitarPedal/libDaisy/src/hid/disp/display.h ****                           bool         fill = false)
  81:../VCOM-G1/GuitarPedal/libDaisy/src/hid/disp/display.h ****         = 0;
  82:../VCOM-G1/GuitarPedal/libDaisy/src/hid/disp/display.h **** 
  83:../VCOM-G1/GuitarPedal/libDaisy/src/hid/disp/display.h ****     /**
  84:../VCOM-G1/GuitarPedal/libDaisy/src/hid/disp/display.h ****     Draws a rectangle.
  85:../VCOM-G1/GuitarPedal/libDaisy/src/hid/disp/display.h ****     \param rect the rectangle
  86:../VCOM-G1/GuitarPedal/libDaisy/src/hid/disp/display.h ****     \param on   on or off
  87:../VCOM-G1/GuitarPedal/libDaisy/src/hid/disp/display.h ****     \param fill fill the rectangle or draw only the outline
  88:../VCOM-G1/GuitarPedal/libDaisy/src/hid/disp/display.h ****     */
  89:../VCOM-G1/GuitarPedal/libDaisy/src/hid/disp/display.h ****     void DrawRect(const Rectangle& rect, bool on, bool fill = false)
  90:../VCOM-G1/GuitarPedal/libDaisy/src/hid/disp/display.h ****     {
  91:../VCOM-G1/GuitarPedal/libDaisy/src/hid/disp/display.h ****         DrawRect(rect.GetX(),
  92:../VCOM-G1/GuitarPedal/libDaisy/src/hid/disp/display.h ****                  rect.GetY(),
  93:../VCOM-G1/GuitarPedal/libDaisy/src/hid/disp/display.h ****                  rect.GetRight(),
  94:../VCOM-G1/GuitarPedal/libDaisy/src/hid/disp/display.h ****                  rect.GetBottom(),
  95:../VCOM-G1/GuitarPedal/libDaisy/src/hid/disp/display.h ****                  on,
  96:../VCOM-G1/GuitarPedal/libDaisy/src/hid/disp/display.h ****                  fill);
  97:../VCOM-G1/GuitarPedal/libDaisy/src/hid/disp/display.h ****     }
  98:../VCOM-G1/GuitarPedal/libDaisy/src/hid/disp/display.h **** 
  99:../VCOM-G1/GuitarPedal/libDaisy/src/hid/disp/display.h ****     /**
 100:../VCOM-G1/GuitarPedal/libDaisy/src/hid/disp/display.h ****     Draws an arc around the specified coordinate
 101:../VCOM-G1/GuitarPedal/libDaisy/src/hid/disp/display.h ****     \param x           x Coordinate of the center of the arc
 102:../VCOM-G1/GuitarPedal/libDaisy/src/hid/disp/display.h ****     \param y           y Coordinate of the center of the arc
 103:../VCOM-G1/GuitarPedal/libDaisy/src/hid/disp/display.h ****     \param radius      radius of the arc
 104:../VCOM-G1/GuitarPedal/libDaisy/src/hid/disp/display.h ****     \param start_angle angle where to start the arc
 105:../VCOM-G1/GuitarPedal/libDaisy/src/hid/disp/display.h ****     \param sweep       total angle of the arc
 106:../VCOM-G1/GuitarPedal/libDaisy/src/hid/disp/display.h ****     \param on  on or off
 107:../VCOM-G1/GuitarPedal/libDaisy/src/hid/disp/display.h ****     */
 108:../VCOM-G1/GuitarPedal/libDaisy/src/hid/disp/display.h ****     virtual void DrawArc(uint_fast8_t x,
 109:../VCOM-G1/GuitarPedal/libDaisy/src/hid/disp/display.h ****                          uint_fast8_t y,
 110:../VCOM-G1/GuitarPedal/libDaisy/src/hid/disp/display.h ****                          uint_fast8_t radius,
ARM GAS  /var/folders/cn/msls48b51jq2dpk8d4mt2d4w0000gn/T//cczoUJhV.s 			page 60


 111:../VCOM-G1/GuitarPedal/libDaisy/src/hid/disp/display.h ****                          int_fast16_t start_angle,
 112:../VCOM-G1/GuitarPedal/libDaisy/src/hid/disp/display.h ****                          int_fast16_t sweep,
 113:../VCOM-G1/GuitarPedal/libDaisy/src/hid/disp/display.h ****                          bool         on)
 114:../VCOM-G1/GuitarPedal/libDaisy/src/hid/disp/display.h ****         = 0;
 115:../VCOM-G1/GuitarPedal/libDaisy/src/hid/disp/display.h **** 
 116:../VCOM-G1/GuitarPedal/libDaisy/src/hid/disp/display.h ****     /**
 117:../VCOM-G1/GuitarPedal/libDaisy/src/hid/disp/display.h ****     Draws a circle around the specified coordinate
 118:../VCOM-G1/GuitarPedal/libDaisy/src/hid/disp/display.h ****     \param x           x Coordinate of the center of the circle
 119:../VCOM-G1/GuitarPedal/libDaisy/src/hid/disp/display.h ****     \param y           y Coordinate of the center of the circle
 120:../VCOM-G1/GuitarPedal/libDaisy/src/hid/disp/display.h ****     \param radius      radius of the circle
 121:../VCOM-G1/GuitarPedal/libDaisy/src/hid/disp/display.h ****     \param on  on or off
 122:../VCOM-G1/GuitarPedal/libDaisy/src/hid/disp/display.h ****     */
 123:../VCOM-G1/GuitarPedal/libDaisy/src/hid/disp/display.h ****     void
 124:../VCOM-G1/GuitarPedal/libDaisy/src/hid/disp/display.h ****     DrawCircle(uint_fast8_t x, uint_fast8_t y, uint_fast8_t radius, bool on)
 125:../VCOM-G1/GuitarPedal/libDaisy/src/hid/disp/display.h ****     {
 126:../VCOM-G1/GuitarPedal/libDaisy/src/hid/disp/display.h ****         DrawArc(x, y, radius, 0, 360, on);
 127:../VCOM-G1/GuitarPedal/libDaisy/src/hid/disp/display.h ****     };
 128:../VCOM-G1/GuitarPedal/libDaisy/src/hid/disp/display.h **** 
 129:../VCOM-G1/GuitarPedal/libDaisy/src/hid/disp/display.h ****     /** 
 130:../VCOM-G1/GuitarPedal/libDaisy/src/hid/disp/display.h ****     Writes the character with the specific FontDef
 131:../VCOM-G1/GuitarPedal/libDaisy/src/hid/disp/display.h ****     to the display buffer at the current Cursor position.
 132:../VCOM-G1/GuitarPedal/libDaisy/src/hid/disp/display.h ****     \param ch character to be written
 133:../VCOM-G1/GuitarPedal/libDaisy/src/hid/disp/display.h ****     \param font font to be written in
 134:../VCOM-G1/GuitarPedal/libDaisy/src/hid/disp/display.h ****     \param on    on or off
 135:../VCOM-G1/GuitarPedal/libDaisy/src/hid/disp/display.h ****     \return &
 136:../VCOM-G1/GuitarPedal/libDaisy/src/hid/disp/display.h ****     */
 137:../VCOM-G1/GuitarPedal/libDaisy/src/hid/disp/display.h ****     virtual char WriteChar(char ch, FontDef font, bool on) = 0;
 138:../VCOM-G1/GuitarPedal/libDaisy/src/hid/disp/display.h **** 
 139:../VCOM-G1/GuitarPedal/libDaisy/src/hid/disp/display.h ****     /** 
 140:../VCOM-G1/GuitarPedal/libDaisy/src/hid/disp/display.h ****     Similar to WriteChar, except it will handle an entire String.
 141:../VCOM-G1/GuitarPedal/libDaisy/src/hid/disp/display.h ****     Wrapping does not happen automatically, so the width
 142:../VCOM-G1/GuitarPedal/libDaisy/src/hid/disp/display.h ****     of the string must be kept within the dimensions of the screen.
 143:../VCOM-G1/GuitarPedal/libDaisy/src/hid/disp/display.h ****     \param str string to be written
 144:../VCOM-G1/GuitarPedal/libDaisy/src/hid/disp/display.h ****     \param font font to use
 145:../VCOM-G1/GuitarPedal/libDaisy/src/hid/disp/display.h ****     \param on  on or off
 146:../VCOM-G1/GuitarPedal/libDaisy/src/hid/disp/display.h ****     \return &
 147:../VCOM-G1/GuitarPedal/libDaisy/src/hid/disp/display.h ****     */
 148:../VCOM-G1/GuitarPedal/libDaisy/src/hid/disp/display.h ****     virtual char WriteString(const char* str, FontDef font, bool on) = 0;
 149:../VCOM-G1/GuitarPedal/libDaisy/src/hid/disp/display.h **** 
 150:../VCOM-G1/GuitarPedal/libDaisy/src/hid/disp/display.h ****     /** 
 151:../VCOM-G1/GuitarPedal/libDaisy/src/hid/disp/display.h ****     Similar to WriteString but justified within a bounding box.
 152:../VCOM-G1/GuitarPedal/libDaisy/src/hid/disp/display.h ****     \param str          string to be written
 153:../VCOM-G1/GuitarPedal/libDaisy/src/hid/disp/display.h ****     \param font         font to use
 154:../VCOM-G1/GuitarPedal/libDaisy/src/hid/disp/display.h ****     \param boundingBox  the bounding box to draw the text in
 155:../VCOM-G1/GuitarPedal/libDaisy/src/hid/disp/display.h ****     \param alignment    the alignment to use
 156:../VCOM-G1/GuitarPedal/libDaisy/src/hid/disp/display.h ****     \param on           on or off
 157:../VCOM-G1/GuitarPedal/libDaisy/src/hid/disp/display.h ****     \return The rectangle that was drawn to
 158:../VCOM-G1/GuitarPedal/libDaisy/src/hid/disp/display.h ****     */
 159:../VCOM-G1/GuitarPedal/libDaisy/src/hid/disp/display.h ****     virtual Rectangle WriteStringAligned(const char*    str,
 160:../VCOM-G1/GuitarPedal/libDaisy/src/hid/disp/display.h ****                                          const FontDef& font,
 161:../VCOM-G1/GuitarPedal/libDaisy/src/hid/disp/display.h ****                                          Rectangle      boundingBox,
 162:../VCOM-G1/GuitarPedal/libDaisy/src/hid/disp/display.h ****                                          Alignment      alignment,
 163:../VCOM-G1/GuitarPedal/libDaisy/src/hid/disp/display.h ****                                          bool           on)
 164:../VCOM-G1/GuitarPedal/libDaisy/src/hid/disp/display.h ****         = 0;
 165:../VCOM-G1/GuitarPedal/libDaisy/src/hid/disp/display.h **** 
 166:../VCOM-G1/GuitarPedal/libDaisy/src/hid/disp/display.h ****     /** 
 167:../VCOM-G1/GuitarPedal/libDaisy/src/hid/disp/display.h ****     Moves the 'Cursor' position used for WriteChar, and WriteStr to the specified coordinate.
ARM GAS  /var/folders/cn/msls48b51jq2dpk8d4mt2d4w0000gn/T//cczoUJhV.s 			page 61


 168:../VCOM-G1/GuitarPedal/libDaisy/src/hid/disp/display.h ****     \param x x pos
 169:../VCOM-G1/GuitarPedal/libDaisy/src/hid/disp/display.h ****     \param y y pos
 170:../VCOM-G1/GuitarPedal/libDaisy/src/hid/disp/display.h ****     */
 171:../VCOM-G1/GuitarPedal/libDaisy/src/hid/disp/display.h ****     void SetCursor(uint16_t x, uint16_t y)
 1662              		.loc 8 171 10 is_stmt 1 view -0
 1663              		.cfi_startproc
 1664              		@ args = 0, pretend = 0, frame = 0
 1665              		@ frame_needed = 0, uses_anonymous_args = 0
 172:../VCOM-G1/GuitarPedal/libDaisy/src/hid/disp/display.h ****     {
 173:../VCOM-G1/GuitarPedal/libDaisy/src/hid/disp/display.h ****         currentX_ = (x >= Width()) ? Width() - 1 : x;
 1666              		.loc 8 173 9 view .LVU583
 171:../VCOM-G1/GuitarPedal/libDaisy/src/hid/disp/display.h ****     {
 1667              		.loc 8 171 10 is_stmt 0 view .LVU584
 1668 0000 70B5     		push	{r4, r5, r6, lr}
 1669              		.cfi_def_cfa_offset 16
 1670              		.cfi_offset 4, -16
 1671              		.cfi_offset 5, -12
 1672              		.cfi_offset 6, -8
 1673              		.cfi_offset 14, -4
 1674              		.loc 8 173 33 view .LVU585
 1675 0002 134C     		ldr	r4, .L93
 171:../VCOM-G1/GuitarPedal/libDaisy/src/hid/disp/display.h ****     {
 1676              		.loc 8 171 10 view .LVU586
 1677 0004 0646     		mov	r6, r0
 1678 0006 0D46     		mov	r5, r1
 1679              		.loc 8 173 33 view .LVU587
 1680 0008 D4F81832 		ldr	r3, [r4, #536]
 1681              		.loc 8 173 32 view .LVU588
 1682 000c 04F50670 		add	r0, r4, #536
 1683              	.LVL81:
 1684              		.loc 8 173 32 view .LVU589
 1685 0010 DB68     		ldr	r3, [r3, #12]
 1686 0012 9847     		blx	r3
 1687              	.LVL82:
 1688              		.loc 8 173 19 view .LVU590
 1689 0014 B042     		cmp	r0, r6
 1690 0016 07D8     		bhi	.L90
 1691              		.loc 8 173 44 view .LVU591
 1692 0018 D4F81832 		ldr	r3, [r4, #536]
 1693              		.loc 8 173 43 view .LVU592
 1694 001c 04F50670 		add	r0, r4, #536
 1695 0020 DB68     		ldr	r3, [r3, #12]
 1696 0022 9847     		blx	r3
 1697              	.LVL83:
 1698              		.loc 8 173 19 view .LVU593
 1699 0024 0138     		subs	r0, r0, #1
 1700 0026 86B2     		uxth	r6, r0
 1701              	.L90:
 174:../VCOM-G1/GuitarPedal/libDaisy/src/hid/disp/display.h ****         currentY_ = (y >= Height()) ? Height() - 1 : y;
 1702              		.loc 8 174 34 view .LVU594
 1703 0028 D4F81832 		ldr	r3, [r4, #536]
 1704              		.loc 8 174 33 view .LVU595
 1705 002c 0948     		ldr	r0, .L93+4
 1706              	.LVL84:
 1707              		.loc 8 174 33 view .LVU596
 1708 002e 9B68     		ldr	r3, [r3, #8]
 173:../VCOM-G1/GuitarPedal/libDaisy/src/hid/disp/display.h ****         currentY_ = (y >= Height()) ? Height() - 1 : y;
ARM GAS  /var/folders/cn/msls48b51jq2dpk8d4mt2d4w0000gn/T//cczoUJhV.s 			page 62


 1709              		.loc 8 173 19 view .LVU597
 1710 0030 A4F81C62 		strh	r6, [r4, #540]	@ movhi
 1711              		.loc 8 174 9 is_stmt 1 view .LVU598
 1712              		.loc 8 174 33 is_stmt 0 view .LVU599
 1713 0034 9847     		blx	r3
 1714              	.LVL85:
 1715              		.loc 8 174 19 view .LVU600
 1716 0036 A842     		cmp	r0, r5
 1717 0038 06D8     		bhi	.L91
 1718              		.loc 8 174 46 view .LVU601
 1719 003a D4F81832 		ldr	r3, [r4, #536]
 1720              		.loc 8 174 45 view .LVU602
 1721 003e 0548     		ldr	r0, .L93+4
 1722              	.LVL86:
 1723              		.loc 8 174 45 view .LVU603
 1724 0040 9B68     		ldr	r3, [r3, #8]
 1725 0042 9847     		blx	r3
 1726              	.LVL87:
 1727              		.loc 8 174 19 view .LVU604
 1728 0044 0138     		subs	r0, r0, #1
 1729 0046 85B2     		uxth	r5, r0
 1730              	.L91:
 1731 0048 A4F81E52 		strh	r5, [r4, #542]	@ movhi
 175:../VCOM-G1/GuitarPedal/libDaisy/src/hid/disp/display.h ****     }
 1732              		.loc 8 175 5 view .LVU605
 1733 004c 70BD     		pop	{r4, r5, r6, pc}
 1734              	.L94:
 1735 004e 00BF     		.align	2
 1736              	.L93:
 1737 0050 00900000 		.word	hardware+36864
 1738 0054 18920000 		.word	hardware+37400
 1739              		.cfi_endproc
 1740              	.LFE17102:
 1742              		.section	.text._ZN5daisy12ST7565DriverILj128ELj64ENS_24SSD130x4WireSpiTransportEE6UpdateEv.constpr
 1743              		.align	1
 1744              		.p2align 2,,3
 1745              		.syntax unified
 1746              		.thumb
 1747              		.thumb_func
 1749              	_ZN5daisy12ST7565DriverILj128ELj64ENS_24SSD130x4WireSpiTransportEE6UpdateEv.constprop.0:
 1750              	.LFB17111:
 1751              		.file 9 "GuitarPedal/Hardware-Modules/st7565.h"
   1:GuitarPedal/Hardware-Modules/st7565.h **** #pragma once
   2:GuitarPedal/Hardware-Modules/st7565.h **** // ąöčĆą░ą╣ą▓ąĄčĆ ST7565R ą┤ą╗čÅ LCD GMG12864-06D (128x64, 4-wire SPI).
   3:GuitarPedal/Hardware-Modules/st7565.h **** // ąĪąŠą▓ą╝ąĄčüčéąĖą╝ čü daisy::OledDisplay<...> ŌĆö čéąŠčé ąČąĄ ąĖąĮčéąĄčĆčäąĄą╣čü, čćčéąŠ čā SSD1
   4:GuitarPedal/Hardware-Modules/st7565.h **** // ą¤ąĄčĆąĄąĖčüą┐ąŠą╗čīąĘčāąĄą╝ SSD130x4WireSpiTransport (čéąĄ ąČąĄ ą┐ąĖąĮčŗ SPI, čćčéąŠ čā čüčéą░č
   5:GuitarPedal/Hardware-Modules/st7565.h **** //
   6:GuitarPedal/Hardware-Modules/st7565.h **** // ąĢčüą╗ąĖ ą║ą░čĆčéąĖąĮą║ą░ ą║čĆąĖą▓ą░čÅ ŌĆö ą║čĆčāčéąĖčéčī ąóą×ąøą¼ąÜą× ą║ąŠąĮčüčéą░ąĮčéčŗ ą▓ ą▒ą
   7:GuitarPedal/Hardware-Modules/st7565.h **** //   ąĘąĄčĆą║ą░ą╗ąŠ ą┐ąŠ X      -> ADC_DIR  (0xA0 <-> 0xA1), ą┐čĆąĖ čüą╝ąĄąĮąĄ ąŠą▒čŗčćąĮąŠ ą╝ąĄąĮč
   8:GuitarPedal/Hardware-Modules/st7565.h **** //   ą┐ąĄčĆąĄą▓čæčĆąĮčāčéąŠ ą┐ąŠ Y  -> COM_DIR  (0xC8 <-> 0xC0)
   9:GuitarPedal/Hardware-Modules/st7565.h **** //   čüą┤ą▓ąĖą│ ą┐ąŠ ą│ąŠčĆąĖąĘąŠąĮčéą░ą╗ąĖ -> COL_OFFSET (0 / 1 / 2 / 4)
  10:GuitarPedal/Hardware-Modules/st7565.h **** //   ą┐čāčüčéąŠ / ą▓ąĄčüčī čćčæčĆąĮčŗą╣  -> CONTRAST (0x10..0x30) ąĖ BIAS (0xA2 <-> 0xA3)
  11:GuitarPedal/Hardware-Modules/st7565.h **** 
  12:GuitarPedal/Hardware-Modules/st7565.h **** #include "dev/oled_ssd130x.h" // ą┤ą░čæčé SSD130x4WireSpiTransport
  13:GuitarPedal/Hardware-Modules/st7565.h **** 
  14:GuitarPedal/Hardware-Modules/st7565.h **** namespace daisy
  15:GuitarPedal/Hardware-Modules/st7565.h **** {
ARM GAS  /var/folders/cn/msls48b51jq2dpk8d4mt2d4w0000gn/T//cczoUJhV.s 			page 63


  16:GuitarPedal/Hardware-Modules/st7565.h **** template <size_t width, size_t height, typename Transport>
  17:GuitarPedal/Hardware-Modules/st7565.h **** class ST7565Driver
  18:GuitarPedal/Hardware-Modules/st7565.h **** {
  19:GuitarPedal/Hardware-Modules/st7565.h ****   public:
  20:GuitarPedal/Hardware-Modules/st7565.h ****     // ===== ą┐ąŠą┤čüčéčĆąŠą╣ą║ą░ ą┐ąŠą┤ ą║ąŠąĮą║čĆąĄčéąĮčŗą╣ ą╝ąŠą┤čāą╗čī (ąĘąĮą░čćąĄąĮąĖčÅ ąĖąĘ č
  21:GuitarPedal/Hardware-Modules/st7565.h ****     static constexpr uint8_t BIAS       = 0xA2; // 0xA2=1/9, 0xA3=1/7
  22:GuitarPedal/Hardware-Modules/st7565.h ****     static constexpr uint8_t ADC_DIR    = 0xA0; // 0xA0 ąĮąŠčĆą╝ / 0xA1 ąĘąĄčĆą║ą░ą╗ąŠ ą┐ąŠ X
  23:GuitarPedal/Hardware-Modules/st7565.h ****     static constexpr uint8_t COM_DIR    = 0xC8; // 0xC8 / 0xC0 ŌĆö ą┐ąĄčĆąĄą▓ąŠčĆąŠčé ą┐ąŠ Y
  24:GuitarPedal/Hardware-Modules/st7565.h ****     static constexpr uint8_t RES_RATIO  = 0x27; // 0x20..0x27
  25:GuitarPedal/Hardware-Modules/st7565.h ****     static constexpr uint8_t CONTRAST   = 0x13; // 0x00..0x3F (19) ŌĆö ąĄčüą╗ąĖ ą▒ą╗ąĄą┤ąĮąŠ/ą┐čāčü
  26:GuitarPedal/Hardware-Modules/st7565.h ****     static constexpr uint8_t COL_OFFSET = 0;    // čā čŹčéąŠą│ąŠ ą╝ąŠą┤čāą╗čÅ čüčéąŠą╗ą▒čåčŗ čü 0
  27:GuitarPedal/Hardware-Modules/st7565.h ****     // ===========================================================================
  28:GuitarPedal/Hardware-Modules/st7565.h **** 
  29:GuitarPedal/Hardware-Modules/st7565.h ****     struct Config
  30:GuitarPedal/Hardware-Modules/st7565.h ****     {
  31:GuitarPedal/Hardware-Modules/st7565.h ****         typename Transport::Config transport_config;
  32:GuitarPedal/Hardware-Modules/st7565.h ****     };
  33:GuitarPedal/Hardware-Modules/st7565.h **** 
  34:GuitarPedal/Hardware-Modules/st7565.h ****     void Init(Config config)
  35:GuitarPedal/Hardware-Modules/st7565.h ****     {
  36:GuitarPedal/Hardware-Modules/st7565.h ****         transport_.Init(config.transport_config); // čüą▒čĆąŠčü + SPI ą┤ąĄą╗ą░ąĄčé čéčĆą░ąĮčüą┐ąŠčĆ
  37:GuitarPedal/Hardware-Modules/st7565.h ****         transport_.SendCommand(0xAE);             // display off
  38:GuitarPedal/Hardware-Modules/st7565.h ****         transport_.SendCommand(BIAS);             // LCD bias 1/9
  39:GuitarPedal/Hardware-Modules/st7565.h ****         transport_.SendCommand(ADC_DIR);          // ADC (ąĘąĄčĆą║ą░ą╗ąŠ X)
  40:GuitarPedal/Hardware-Modules/st7565.h ****         transport_.SendCommand(COM_DIR);          // COM (ą┐ąĄčĆąĄą▓ąŠčĆąŠčé Y)
  41:GuitarPedal/Hardware-Modules/st7565.h ****         transport_.SendCommand(RES_RATIO);        // V5 resistor ratio
  42:GuitarPedal/Hardware-Modules/st7565.h ****         transport_.SendCommand(0x2F);             // power: booster+regulator+follower ON
  43:GuitarPedal/Hardware-Modules/st7565.h ****         System::Delay(50);                        // ą┤ą░čéčī booster čüčéą░ą▒ąĖą╗ąĖąĘąĖčĆąŠą▓ą░čéč
  44:GuitarPedal/Hardware-Modules/st7565.h ****         transport_.SendCommand(0x81);             // contrast mode
  45:GuitarPedal/Hardware-Modules/st7565.h ****         transport_.SendCommand(CONTRAST);         // contrast value
  46:GuitarPedal/Hardware-Modules/st7565.h ****         transport_.SendCommand(0x40);             // start line = 0
  47:GuitarPedal/Hardware-Modules/st7565.h ****         transport_.SendCommand(0xAF);             // display on
  48:GuitarPedal/Hardware-Modules/st7565.h ****         transport_.SendCommand(0xA6);             // ąĮąŠčĆą╝ą░ą╗čīąĮą░čÅ (ąĮąĄ ąĖąĮą▓ąĄčĆčüąĮą░čÅ)
  49:GuitarPedal/Hardware-Modules/st7565.h ****     }
  50:GuitarPedal/Hardware-Modules/st7565.h **** 
  51:GuitarPedal/Hardware-Modules/st7565.h ****     // ąÜąŠąĮčéčĆą░čüčé (electronic volume) ST7565: ą║ąŠą╝ą░ąĮą┤ą░ 0x81 + ąĘąĮą░čćąĄąĮąĖąĄ 0..63.
  52:GuitarPedal/Hardware-Modules/st7565.h ****     void SetContrast(uint8_t v)
  53:GuitarPedal/Hardware-Modules/st7565.h ****     {
  54:GuitarPedal/Hardware-Modules/st7565.h ****         if(v > 0x3F)
  55:GuitarPedal/Hardware-Modules/st7565.h ****             v = 0x3F;
  56:GuitarPedal/Hardware-Modules/st7565.h ****         transport_.SendCommand(0x81);
  57:GuitarPedal/Hardware-Modules/st7565.h ****         transport_.SendCommand(v);
  58:GuitarPedal/Hardware-Modules/st7565.h ****     }
  59:GuitarPedal/Hardware-Modules/st7565.h **** 
  60:GuitarPedal/Hardware-Modules/st7565.h ****     size_t Width() const { return width; }
  61:GuitarPedal/Hardware-Modules/st7565.h ****     size_t Height() const { return height; }
  62:GuitarPedal/Hardware-Modules/st7565.h **** 
  63:GuitarPedal/Hardware-Modules/st7565.h ****     void DrawPixel(uint_fast8_t x, uint_fast8_t y, bool on)
  64:GuitarPedal/Hardware-Modules/st7565.h ****     {
  65:GuitarPedal/Hardware-Modules/st7565.h ****         if(x >= width || y >= height)
  66:GuitarPedal/Hardware-Modules/st7565.h ****             return;
  67:GuitarPedal/Hardware-Modules/st7565.h ****         if(on)
  68:GuitarPedal/Hardware-Modules/st7565.h ****             buffer_[x + (y / 8) * width] |= (1 << (y % 8));
  69:GuitarPedal/Hardware-Modules/st7565.h ****         else
  70:GuitarPedal/Hardware-Modules/st7565.h ****             buffer_[x + (y / 8) * width] &= ~(1 << (y % 8));
  71:GuitarPedal/Hardware-Modules/st7565.h ****     }
  72:GuitarPedal/Hardware-Modules/st7565.h **** 
ARM GAS  /var/folders/cn/msls48b51jq2dpk8d4mt2d4w0000gn/T//cczoUJhV.s 			page 64


  73:GuitarPedal/Hardware-Modules/st7565.h ****     void Fill(bool on)
  74:GuitarPedal/Hardware-Modules/st7565.h ****     {
  75:GuitarPedal/Hardware-Modules/st7565.h ****         for(size_t i = 0; i < sizeof(buffer_); i++)
  76:GuitarPedal/Hardware-Modules/st7565.h ****             buffer_[i] = on ? 0xFF : 0x00;
  77:GuitarPedal/Hardware-Modules/st7565.h ****     }
  78:GuitarPedal/Hardware-Modules/st7565.h **** 
  79:GuitarPedal/Hardware-Modules/st7565.h ****     void Update()
 1752              		.loc 9 79 10 is_stmt 1 view -0
 1753              		.cfi_startproc
 1754              		@ args = 0, pretend = 0, frame = 8
 1755              		@ frame_needed = 0, uses_anonymous_args = 0
 1756              	.LVL88:
 1757              	.LBB747:
  80:GuitarPedal/Hardware-Modules/st7565.h ****     {
  81:GuitarPedal/Hardware-Modules/st7565.h ****         for(uint8_t p = 0; p < (height / 8); p++)
 1758              		.loc 9 81 30 view .LVU607
 1759              	.LBE747:
  79:GuitarPedal/Hardware-Modules/st7565.h ****     {
 1760              		.loc 9 79 10 is_stmt 0 view .LVU608
 1761 0000 70B5     		push	{r4, r5, r6, lr}
 1762              		.cfi_def_cfa_offset 16
 1763              		.cfi_offset 4, -16
 1764              		.cfi_offset 5, -12
 1765              		.cfi_offset 6, -8
 1766              		.cfi_offset 14, -4
 1767 0002 1E4E     		ldr	r6, .L99
 1768 0004 82B0     		sub	sp, sp, #8
 1769              		.cfi_def_cfa_offset 24
  79:GuitarPedal/Hardware-Modules/st7565.h ****     {
 1770              		.loc 9 79 10 view .LVU609
 1771 0006 B024     		movs	r4, #176
 1772              	.LVL89:
 1773              	.L96:
  79:GuitarPedal/Hardware-Modules/st7565.h ****     {
 1774              		.loc 9 79 10 view .LVU610
 1775 0008 0025     		movs	r5, #0
 1776              	.LBB765:
 1777              	.LBB748:
 1778              	.LBB749:
 1779              		.file 10 "../VCOM-G1/GuitarPedal/libDaisy/src/dev/oled_ssd130x.h"
   1:../VCOM-G1/GuitarPedal/libDaisy/src/dev/oled_ssd130x.h **** #pragma once
   2:../VCOM-G1/GuitarPedal/libDaisy/src/dev/oled_ssd130x.h **** #ifndef SA_OLED_SSD130X_H
   3:../VCOM-G1/GuitarPedal/libDaisy/src/dev/oled_ssd130x.h **** #define SA_OLED_SSD130X_H /**< & */
   4:../VCOM-G1/GuitarPedal/libDaisy/src/dev/oled_ssd130x.h **** 
   5:../VCOM-G1/GuitarPedal/libDaisy/src/dev/oled_ssd130x.h **** #include "per/i2c.h"
   6:../VCOM-G1/GuitarPedal/libDaisy/src/dev/oled_ssd130x.h **** #include "per/spi.h"
   7:../VCOM-G1/GuitarPedal/libDaisy/src/dev/oled_ssd130x.h **** #include "per/gpio.h"
   8:../VCOM-G1/GuitarPedal/libDaisy/src/dev/oled_ssd130x.h **** #include "sys/system.h"
   9:../VCOM-G1/GuitarPedal/libDaisy/src/dev/oled_ssd130x.h **** #include "stm32h7xx_hal.h"
  10:../VCOM-G1/GuitarPedal/libDaisy/src/dev/oled_ssd130x.h **** 
  11:../VCOM-G1/GuitarPedal/libDaisy/src/dev/oled_ssd130x.h **** namespace daisy
  12:../VCOM-G1/GuitarPedal/libDaisy/src/dev/oled_ssd130x.h **** {
  13:../VCOM-G1/GuitarPedal/libDaisy/src/dev/oled_ssd130x.h **** /**
  14:../VCOM-G1/GuitarPedal/libDaisy/src/dev/oled_ssd130x.h ****  * I2C Transport for SSD1306 / SSD1309 OLED display devices
  15:../VCOM-G1/GuitarPedal/libDaisy/src/dev/oled_ssd130x.h ****  */
  16:../VCOM-G1/GuitarPedal/libDaisy/src/dev/oled_ssd130x.h **** class SSD130xI2CTransport
  17:../VCOM-G1/GuitarPedal/libDaisy/src/dev/oled_ssd130x.h **** {
ARM GAS  /var/folders/cn/msls48b51jq2dpk8d4mt2d4w0000gn/T//cczoUJhV.s 			page 65


  18:../VCOM-G1/GuitarPedal/libDaisy/src/dev/oled_ssd130x.h ****   public:
  19:../VCOM-G1/GuitarPedal/libDaisy/src/dev/oled_ssd130x.h ****     struct Config
  20:../VCOM-G1/GuitarPedal/libDaisy/src/dev/oled_ssd130x.h ****     {
  21:../VCOM-G1/GuitarPedal/libDaisy/src/dev/oled_ssd130x.h ****         Config()
  22:../VCOM-G1/GuitarPedal/libDaisy/src/dev/oled_ssd130x.h ****         {
  23:../VCOM-G1/GuitarPedal/libDaisy/src/dev/oled_ssd130x.h ****             // Intialize using defaults
  24:../VCOM-G1/GuitarPedal/libDaisy/src/dev/oled_ssd130x.h ****             Defaults();
  25:../VCOM-G1/GuitarPedal/libDaisy/src/dev/oled_ssd130x.h ****         }
  26:../VCOM-G1/GuitarPedal/libDaisy/src/dev/oled_ssd130x.h ****         I2CHandle::Config i2c_config;
  27:../VCOM-G1/GuitarPedal/libDaisy/src/dev/oled_ssd130x.h ****         uint8_t           i2c_address;
  28:../VCOM-G1/GuitarPedal/libDaisy/src/dev/oled_ssd130x.h ****         void              Defaults()
  29:../VCOM-G1/GuitarPedal/libDaisy/src/dev/oled_ssd130x.h ****         {
  30:../VCOM-G1/GuitarPedal/libDaisy/src/dev/oled_ssd130x.h ****             i2c_config.periph         = I2CHandle::Config::Peripheral::I2C_1;
  31:../VCOM-G1/GuitarPedal/libDaisy/src/dev/oled_ssd130x.h ****             i2c_config.speed          = I2CHandle::Config::Speed::I2C_1MHZ;
  32:../VCOM-G1/GuitarPedal/libDaisy/src/dev/oled_ssd130x.h ****             i2c_config.mode           = I2CHandle::Config::Mode::I2C_MASTER;
  33:../VCOM-G1/GuitarPedal/libDaisy/src/dev/oled_ssd130x.h ****             i2c_config.pin_config.scl = Pin(PORTB, 8);
  34:../VCOM-G1/GuitarPedal/libDaisy/src/dev/oled_ssd130x.h ****             i2c_config.pin_config.sda = Pin(PORTB, 9);
  35:../VCOM-G1/GuitarPedal/libDaisy/src/dev/oled_ssd130x.h ****             i2c_address               = 0x3C;
  36:../VCOM-G1/GuitarPedal/libDaisy/src/dev/oled_ssd130x.h ****         }
  37:../VCOM-G1/GuitarPedal/libDaisy/src/dev/oled_ssd130x.h ****     };
  38:../VCOM-G1/GuitarPedal/libDaisy/src/dev/oled_ssd130x.h ****     void Init(const Config& config)
  39:../VCOM-G1/GuitarPedal/libDaisy/src/dev/oled_ssd130x.h ****     {
  40:../VCOM-G1/GuitarPedal/libDaisy/src/dev/oled_ssd130x.h ****         i2c_address_ = config.i2c_address;
  41:../VCOM-G1/GuitarPedal/libDaisy/src/dev/oled_ssd130x.h ****         i2c_.Init(config.i2c_config);
  42:../VCOM-G1/GuitarPedal/libDaisy/src/dev/oled_ssd130x.h ****     };
  43:../VCOM-G1/GuitarPedal/libDaisy/src/dev/oled_ssd130x.h ****     void SendCommand(uint8_t cmd)
  44:../VCOM-G1/GuitarPedal/libDaisy/src/dev/oled_ssd130x.h ****     {
  45:../VCOM-G1/GuitarPedal/libDaisy/src/dev/oled_ssd130x.h ****         uint8_t buf[2] = {0X00, cmd};
  46:../VCOM-G1/GuitarPedal/libDaisy/src/dev/oled_ssd130x.h ****         i2c_.TransmitBlocking(i2c_address_, buf, 2, 1000);
  47:../VCOM-G1/GuitarPedal/libDaisy/src/dev/oled_ssd130x.h ****     };
  48:../VCOM-G1/GuitarPedal/libDaisy/src/dev/oled_ssd130x.h **** 
  49:../VCOM-G1/GuitarPedal/libDaisy/src/dev/oled_ssd130x.h ****     void SendData(uint8_t* buff, size_t size)
  50:../VCOM-G1/GuitarPedal/libDaisy/src/dev/oled_ssd130x.h ****     {
  51:../VCOM-G1/GuitarPedal/libDaisy/src/dev/oled_ssd130x.h ****         for(size_t i = 0; i < size; i++)
  52:../VCOM-G1/GuitarPedal/libDaisy/src/dev/oled_ssd130x.h ****         {
  53:../VCOM-G1/GuitarPedal/libDaisy/src/dev/oled_ssd130x.h ****             uint8_t buf[2] = {0X40, buff[i]};
  54:../VCOM-G1/GuitarPedal/libDaisy/src/dev/oled_ssd130x.h ****             i2c_.TransmitBlocking(i2c_address_, buf, 2, 1000);
  55:../VCOM-G1/GuitarPedal/libDaisy/src/dev/oled_ssd130x.h ****         }
  56:../VCOM-G1/GuitarPedal/libDaisy/src/dev/oled_ssd130x.h ****     };
  57:../VCOM-G1/GuitarPedal/libDaisy/src/dev/oled_ssd130x.h **** 
  58:../VCOM-G1/GuitarPedal/libDaisy/src/dev/oled_ssd130x.h ****   private:
  59:../VCOM-G1/GuitarPedal/libDaisy/src/dev/oled_ssd130x.h ****     daisy::I2CHandle i2c_;
  60:../VCOM-G1/GuitarPedal/libDaisy/src/dev/oled_ssd130x.h ****     uint8_t          i2c_address_;
  61:../VCOM-G1/GuitarPedal/libDaisy/src/dev/oled_ssd130x.h **** };
  62:../VCOM-G1/GuitarPedal/libDaisy/src/dev/oled_ssd130x.h **** 
  63:../VCOM-G1/GuitarPedal/libDaisy/src/dev/oled_ssd130x.h **** /**
  64:../VCOM-G1/GuitarPedal/libDaisy/src/dev/oled_ssd130x.h ****  * 4 Wire SPI Transport for SSD1306 / SSD1309 OLED display devices
  65:../VCOM-G1/GuitarPedal/libDaisy/src/dev/oled_ssd130x.h ****  */
  66:../VCOM-G1/GuitarPedal/libDaisy/src/dev/oled_ssd130x.h **** class SSD130x4WireSpiTransport
  67:../VCOM-G1/GuitarPedal/libDaisy/src/dev/oled_ssd130x.h **** {
  68:../VCOM-G1/GuitarPedal/libDaisy/src/dev/oled_ssd130x.h ****   public:
  69:../VCOM-G1/GuitarPedal/libDaisy/src/dev/oled_ssd130x.h ****     struct Config
  70:../VCOM-G1/GuitarPedal/libDaisy/src/dev/oled_ssd130x.h ****     {
  71:../VCOM-G1/GuitarPedal/libDaisy/src/dev/oled_ssd130x.h ****         Config()
  72:../VCOM-G1/GuitarPedal/libDaisy/src/dev/oled_ssd130x.h ****         {
  73:../VCOM-G1/GuitarPedal/libDaisy/src/dev/oled_ssd130x.h ****             // Initialize using defaults
  74:../VCOM-G1/GuitarPedal/libDaisy/src/dev/oled_ssd130x.h ****             Defaults();
ARM GAS  /var/folders/cn/msls48b51jq2dpk8d4mt2d4w0000gn/T//cczoUJhV.s 			page 66


  75:../VCOM-G1/GuitarPedal/libDaisy/src/dev/oled_ssd130x.h ****         }
  76:../VCOM-G1/GuitarPedal/libDaisy/src/dev/oled_ssd130x.h ****         SpiHandle::Config spi_config;
  77:../VCOM-G1/GuitarPedal/libDaisy/src/dev/oled_ssd130x.h ****         struct
  78:../VCOM-G1/GuitarPedal/libDaisy/src/dev/oled_ssd130x.h ****         {
  79:../VCOM-G1/GuitarPedal/libDaisy/src/dev/oled_ssd130x.h ****             Pin dc;    /**< & */
  80:../VCOM-G1/GuitarPedal/libDaisy/src/dev/oled_ssd130x.h ****             Pin reset; /**< & */
  81:../VCOM-G1/GuitarPedal/libDaisy/src/dev/oled_ssd130x.h ****         } pin_config;
  82:../VCOM-G1/GuitarPedal/libDaisy/src/dev/oled_ssd130x.h ****         bool useDma;
  83:../VCOM-G1/GuitarPedal/libDaisy/src/dev/oled_ssd130x.h ****         void Defaults()
  84:../VCOM-G1/GuitarPedal/libDaisy/src/dev/oled_ssd130x.h ****         {
  85:../VCOM-G1/GuitarPedal/libDaisy/src/dev/oled_ssd130x.h ****             // SPI peripheral config
  86:../VCOM-G1/GuitarPedal/libDaisy/src/dev/oled_ssd130x.h ****             spi_config.periph = SpiHandle::Config::Peripheral::SPI_1;
  87:../VCOM-G1/GuitarPedal/libDaisy/src/dev/oled_ssd130x.h ****             spi_config.mode   = SpiHandle::Config::Mode::MASTER;
  88:../VCOM-G1/GuitarPedal/libDaisy/src/dev/oled_ssd130x.h ****             spi_config.direction
  89:../VCOM-G1/GuitarPedal/libDaisy/src/dev/oled_ssd130x.h ****                 = SpiHandle::Config::Direction::TWO_LINES_TX_ONLY;
  90:../VCOM-G1/GuitarPedal/libDaisy/src/dev/oled_ssd130x.h ****             spi_config.datasize       = 8;
  91:../VCOM-G1/GuitarPedal/libDaisy/src/dev/oled_ssd130x.h ****             spi_config.clock_polarity = SpiHandle::Config::ClockPolarity::LOW;
  92:../VCOM-G1/GuitarPedal/libDaisy/src/dev/oled_ssd130x.h ****             spi_config.clock_phase    = SpiHandle::Config::ClockPhase::ONE_EDGE;
  93:../VCOM-G1/GuitarPedal/libDaisy/src/dev/oled_ssd130x.h ****             spi_config.nss            = SpiHandle::Config::NSS::HARD_OUTPUT;
  94:../VCOM-G1/GuitarPedal/libDaisy/src/dev/oled_ssd130x.h ****             spi_config.baud_prescaler = SpiHandle::Config::BaudPrescaler::PS_8;
  95:../VCOM-G1/GuitarPedal/libDaisy/src/dev/oled_ssd130x.h ****             // SPI pin config
  96:../VCOM-G1/GuitarPedal/libDaisy/src/dev/oled_ssd130x.h ****             spi_config.pin_config.sclk = Pin(PORTG, 11);
  97:../VCOM-G1/GuitarPedal/libDaisy/src/dev/oled_ssd130x.h ****             spi_config.pin_config.miso = Pin(PORTX, 0);
  98:../VCOM-G1/GuitarPedal/libDaisy/src/dev/oled_ssd130x.h ****             spi_config.pin_config.mosi = Pin(PORTB, 5);
  99:../VCOM-G1/GuitarPedal/libDaisy/src/dev/oled_ssd130x.h ****             spi_config.pin_config.nss  = Pin(PORTG, 10);
 100:../VCOM-G1/GuitarPedal/libDaisy/src/dev/oled_ssd130x.h ****             // SSD130x control pin config
 101:../VCOM-G1/GuitarPedal/libDaisy/src/dev/oled_ssd130x.h ****             pin_config.dc    = Pin(PORTB, 4);
 102:../VCOM-G1/GuitarPedal/libDaisy/src/dev/oled_ssd130x.h ****             pin_config.reset = Pin(PORTB, 15);
 103:../VCOM-G1/GuitarPedal/libDaisy/src/dev/oled_ssd130x.h ****             // Using DMA off by default
 104:../VCOM-G1/GuitarPedal/libDaisy/src/dev/oled_ssd130x.h ****             useDma = false;
 105:../VCOM-G1/GuitarPedal/libDaisy/src/dev/oled_ssd130x.h ****         }
 106:../VCOM-G1/GuitarPedal/libDaisy/src/dev/oled_ssd130x.h ****     };
 107:../VCOM-G1/GuitarPedal/libDaisy/src/dev/oled_ssd130x.h ****     void Init(const Config& config)
 108:../VCOM-G1/GuitarPedal/libDaisy/src/dev/oled_ssd130x.h ****     {
 109:../VCOM-G1/GuitarPedal/libDaisy/src/dev/oled_ssd130x.h ****         // Initialize both GPIO
 110:../VCOM-G1/GuitarPedal/libDaisy/src/dev/oled_ssd130x.h ****         pin_dc_.Init(config.pin_config.dc, GPIO::Mode::OUTPUT);
 111:../VCOM-G1/GuitarPedal/libDaisy/src/dev/oled_ssd130x.h ****         pin_reset_.Init(config.pin_config.reset, GPIO::Mode::OUTPUT);
 112:../VCOM-G1/GuitarPedal/libDaisy/src/dev/oled_ssd130x.h **** 
 113:../VCOM-G1/GuitarPedal/libDaisy/src/dev/oled_ssd130x.h ****         // Initialize SPI
 114:../VCOM-G1/GuitarPedal/libDaisy/src/dev/oled_ssd130x.h ****         spi_.Init(config.spi_config);
 115:../VCOM-G1/GuitarPedal/libDaisy/src/dev/oled_ssd130x.h **** 
 116:../VCOM-G1/GuitarPedal/libDaisy/src/dev/oled_ssd130x.h ****         // Reset and Configure OLED.
 117:../VCOM-G1/GuitarPedal/libDaisy/src/dev/oled_ssd130x.h ****         pin_reset_.Write(0);
 118:../VCOM-G1/GuitarPedal/libDaisy/src/dev/oled_ssd130x.h ****         System::Delay(10);
 119:../VCOM-G1/GuitarPedal/libDaisy/src/dev/oled_ssd130x.h ****         pin_reset_.Write(1);
 120:../VCOM-G1/GuitarPedal/libDaisy/src/dev/oled_ssd130x.h ****         System::Delay(10);
 121:../VCOM-G1/GuitarPedal/libDaisy/src/dev/oled_ssd130x.h ****     };
 122:../VCOM-G1/GuitarPedal/libDaisy/src/dev/oled_ssd130x.h **** 
 123:../VCOM-G1/GuitarPedal/libDaisy/src/dev/oled_ssd130x.h ****     void SendCommand(uint8_t cmd)
 124:../VCOM-G1/GuitarPedal/libDaisy/src/dev/oled_ssd130x.h ****     {
 125:../VCOM-G1/GuitarPedal/libDaisy/src/dev/oled_ssd130x.h ****         pin_dc_.Write(0);
 1780              		.loc 10 125 22 view .LVU611
 1781 000a 1D48     		ldr	r0, .L99+4
 1782 000c 8DF80740 		strb	r4, [sp, #7]
 1783              	.LVL90:
 1784              		.loc 10 125 22 view .LVU612
 1785              	.LBE749:
ARM GAS  /var/folders/cn/msls48b51jq2dpk8d4mt2d4w0000gn/T//cczoUJhV.s 			page 67


 1786              	.LBI748:
 123:../VCOM-G1/GuitarPedal/libDaisy/src/dev/oled_ssd130x.h ****     {
 1787              		.loc 10 123 10 is_stmt 1 view .LVU613
 1788              	.LBB750:
 1789              		.loc 10 125 9 view .LVU614
 1790              	.LBE750:
 1791              	.LBE748:
 1792              		.loc 9 81 30 is_stmt 0 view .LVU615
 1793 0010 0134     		adds	r4, r4, #1
 1794              	.LVL91:
 1795              	.LBB753:
 1796              	.LBB751:
 1797              		.loc 10 125 22 view .LVU616
 1798 0012 2946     		mov	r1, r5
 1799 0014 FFF7FEFF 		bl	_ZN5daisy4GPIO5WriteEb
 1800              	.LVL92:
 126:../VCOM-G1/GuitarPedal/libDaisy/src/dev/oled_ssd130x.h ****         spi_.BlockingTransmit(&cmd, 1);
 1801              		.loc 10 126 9 is_stmt 1 view .LVU617
 1802              		.loc 10 126 30 is_stmt 0 view .LVU618
 1803 0018 6423     		movs	r3, #100
 1804 001a 0122     		movs	r2, #1
 1805 001c 0DF10701 		add	r1, sp, #7
 1806 0020 1848     		ldr	r0, .L99+8
 1807              	.LVL93:
 1808              		.loc 10 126 30 view .LVU619
 1809              	.LBE751:
 1810              	.LBE753:
 1811              		.loc 9 81 30 view .LVU620
 1812 0022 E4B2     		uxtb	r4, r4
 1813              	.LBB754:
 1814              	.LBB752:
 1815              		.loc 10 126 30 view .LVU621
 1816 0024 FFF7FEFF 		bl	_ZN5daisy9SpiHandle16BlockingTransmitEPhjm
 1817              	.LVL94:
 1818              		.loc 10 126 30 view .LVU622
 1819              	.LBE752:
 1820              	.LBE754:
 1821              	.LBB755:
 1822              	.LBB756:
 125:../VCOM-G1/GuitarPedal/libDaisy/src/dev/oled_ssd130x.h ****         spi_.BlockingTransmit(&cmd, 1);
 1823              		.loc 10 125 22 view .LVU623
 1824 0028 2946     		mov	r1, r5
 1825 002a 1548     		ldr	r0, .L99+4
 1826 002c 8DF80750 		strb	r5, [sp, #7]
 1827              	.LVL95:
 125:../VCOM-G1/GuitarPedal/libDaisy/src/dev/oled_ssd130x.h ****         spi_.BlockingTransmit(&cmd, 1);
 1828              		.loc 10 125 22 view .LVU624
 1829              	.LBE756:
 1830              	.LBI755:
 123:../VCOM-G1/GuitarPedal/libDaisy/src/dev/oled_ssd130x.h ****     {
 1831              		.loc 10 123 10 is_stmt 1 view .LVU625
 1832              	.LBB757:
 125:../VCOM-G1/GuitarPedal/libDaisy/src/dev/oled_ssd130x.h ****         spi_.BlockingTransmit(&cmd, 1);
 1833              		.loc 10 125 9 view .LVU626
 125:../VCOM-G1/GuitarPedal/libDaisy/src/dev/oled_ssd130x.h ****         spi_.BlockingTransmit(&cmd, 1);
 1834              		.loc 10 125 22 is_stmt 0 view .LVU627
 1835 0030 FFF7FEFF 		bl	_ZN5daisy4GPIO5WriteEb
ARM GAS  /var/folders/cn/msls48b51jq2dpk8d4mt2d4w0000gn/T//cczoUJhV.s 			page 68


 1836              	.LVL96:
 1837              		.loc 10 126 9 is_stmt 1 view .LVU628
 1838              		.loc 10 126 30 is_stmt 0 view .LVU629
 1839 0034 0122     		movs	r2, #1
 1840 0036 6423     		movs	r3, #100
 1841 0038 0DF10701 		add	r1, sp, #7
 1842 003c 1148     		ldr	r0, .L99+8
 1843              	.LVL97:
 1844              		.loc 10 126 30 view .LVU630
 1845 003e FFF7FEFF 		bl	_ZN5daisy9SpiHandle16BlockingTransmitEPhjm
 1846              	.LVL98:
 1847              		.loc 10 126 30 view .LVU631
 1848 0042 1023     		movs	r3, #16
 1849              	.LBE757:
 1850              	.LBE755:
 1851              	.LBB758:
 1852              	.LBB759:
 125:../VCOM-G1/GuitarPedal/libDaisy/src/dev/oled_ssd130x.h ****         spi_.BlockingTransmit(&cmd, 1);
 1853              		.loc 10 125 22 view .LVU632
 1854 0044 2946     		mov	r1, r5
 1855 0046 0E48     		ldr	r0, .L99+4
 1856 0048 8DF80730 		strb	r3, [sp, #7]
 1857              	.LVL99:
 125:../VCOM-G1/GuitarPedal/libDaisy/src/dev/oled_ssd130x.h ****         spi_.BlockingTransmit(&cmd, 1);
 1858              		.loc 10 125 22 view .LVU633
 1859              	.LBE759:
 1860              	.LBI758:
 123:../VCOM-G1/GuitarPedal/libDaisy/src/dev/oled_ssd130x.h ****     {
 1861              		.loc 10 123 10 is_stmt 1 view .LVU634
 1862              	.LBB760:
 125:../VCOM-G1/GuitarPedal/libDaisy/src/dev/oled_ssd130x.h ****         spi_.BlockingTransmit(&cmd, 1);
 1863              		.loc 10 125 9 view .LVU635
 125:../VCOM-G1/GuitarPedal/libDaisy/src/dev/oled_ssd130x.h ****         spi_.BlockingTransmit(&cmd, 1);
 1864              		.loc 10 125 22 is_stmt 0 view .LVU636
 1865 004c FFF7FEFF 		bl	_ZN5daisy4GPIO5WriteEb
 1866              	.LVL100:
 1867              		.loc 10 126 9 is_stmt 1 view .LVU637
 1868              		.loc 10 126 30 is_stmt 0 view .LVU638
 1869 0050 6423     		movs	r3, #100
 1870 0052 0122     		movs	r2, #1
 1871 0054 0DF10701 		add	r1, sp, #7
 1872 0058 0A48     		ldr	r0, .L99+8
 1873              	.LVL101:
 1874              		.loc 10 126 30 view .LVU639
 1875 005a FFF7FEFF 		bl	_ZN5daisy9SpiHandle16BlockingTransmitEPhjm
 1876              	.LVL102:
 1877              		.loc 10 126 30 view .LVU640
 1878              	.LBE760:
 1879              	.LBE758:
 1880              	.LBB761:
 1881              	.LBI761:
 127:../VCOM-G1/GuitarPedal/libDaisy/src/dev/oled_ssd130x.h ****     };
 128:../VCOM-G1/GuitarPedal/libDaisy/src/dev/oled_ssd130x.h **** 
 129:../VCOM-G1/GuitarPedal/libDaisy/src/dev/oled_ssd130x.h ****     void SendCommands(uint8_t* buff, size_t size)
 130:../VCOM-G1/GuitarPedal/libDaisy/src/dev/oled_ssd130x.h ****     {
 131:../VCOM-G1/GuitarPedal/libDaisy/src/dev/oled_ssd130x.h ****         pin_dc_.Write(0);
 132:../VCOM-G1/GuitarPedal/libDaisy/src/dev/oled_ssd130x.h ****         spi_.BlockingTransmit(buff, size);
ARM GAS  /var/folders/cn/msls48b51jq2dpk8d4mt2d4w0000gn/T//cczoUJhV.s 			page 69


 133:../VCOM-G1/GuitarPedal/libDaisy/src/dev/oled_ssd130x.h ****     };
 134:../VCOM-G1/GuitarPedal/libDaisy/src/dev/oled_ssd130x.h **** 
 135:../VCOM-G1/GuitarPedal/libDaisy/src/dev/oled_ssd130x.h ****     void SendData(uint8_t* buff, size_t size)
 1882              		.loc 10 135 10 is_stmt 1 view .LVU641
 1883              	.LBB762:
 136:../VCOM-G1/GuitarPedal/libDaisy/src/dev/oled_ssd130x.h ****     {
 137:../VCOM-G1/GuitarPedal/libDaisy/src/dev/oled_ssd130x.h ****         pin_dc_.Write(1);
 1884              		.loc 10 137 9 view .LVU642
 1885              		.loc 10 137 22 is_stmt 0 view .LVU643
 1886 005e 0121     		movs	r1, #1
 1887 0060 0748     		ldr	r0, .L99+4
 1888 0062 FFF7FEFF 		bl	_ZN5daisy4GPIO5WriteEb
 1889              	.LVL103:
 138:../VCOM-G1/GuitarPedal/libDaisy/src/dev/oled_ssd130x.h ****         spi_.BlockingTransmit(buff, size);
 1890              		.loc 10 138 9 is_stmt 1 view .LVU644
 1891              		.loc 10 138 30 is_stmt 0 view .LVU645
 1892 0066 8022     		movs	r2, #128
 1893 0068 3146     		mov	r1, r6
 1894 006a 6423     		movs	r3, #100
 1895 006c 0548     		ldr	r0, .L99+8
 1896              	.LVL104:
 1897              		.loc 10 138 30 view .LVU646
 1898              	.LBE762:
 1899              	.LBE761:
 1900              		.loc 9 81 30 view .LVU647
 1901 006e 1644     		add	r6, r6, r2
 1902              	.LVL105:
 1903              	.LBB764:
 1904              	.LBB763:
 1905              		.loc 10 138 30 view .LVU648
 1906 0070 FFF7FEFF 		bl	_ZN5daisy9SpiHandle16BlockingTransmitEPhjm
 1907              	.LVL106:
 1908              		.loc 10 138 30 view .LVU649
 1909              	.LBE763:
 1910              	.LBE764:
 1911              		.loc 9 81 9 is_stmt 1 view .LVU650
 1912              		.loc 9 81 30 view .LVU651
 1913 0074 B82C     		cmp	r4, #184
 1914 0076 C7D1     		bne	.L96
 1915              	.LBE765:
  82:GuitarPedal/Hardware-Modules/st7565.h ****         {
  83:GuitarPedal/Hardware-Modules/st7565.h ****             transport_.SendCommand(0xB0 + p);                   // page
  84:GuitarPedal/Hardware-Modules/st7565.h ****             transport_.SendCommand(0x00 | (COL_OFFSET & 0x0F)); // column low nibble
  85:GuitarPedal/Hardware-Modules/st7565.h ****             transport_.SendCommand(0x10 | (COL_OFFSET >> 4));   // column high nibble
  86:GuitarPedal/Hardware-Modules/st7565.h ****             transport_.SendData(&buffer_[width * p], width);
  87:GuitarPedal/Hardware-Modules/st7565.h ****         }
  88:GuitarPedal/Hardware-Modules/st7565.h ****     }
 1916              		.loc 9 88 5 is_stmt 0 view .LVU652
 1917 0078 02B0     		add	sp, sp, #8
 1918              		.cfi_def_cfa_offset 16
 1919              		@ sp needed
 1920 007a 70BD     		pop	{r4, r5, r6, pc}
 1921              	.L100:
 1922              		.align	2
 1923              	.L99:
 1924 007c 4C920000 		.word	hardware+37452
 1925 0080 38920000 		.word	hardware+37432
ARM GAS  /var/folders/cn/msls48b51jq2dpk8d4mt2d4w0000gn/T//cczoUJhV.s 			page 70


 1926 0084 20920000 		.word	hardware+37408
 1927              		.cfi_endproc
 1928              	.LFE17111:
 1930              		.section	.text._ZN5daisy25OneBitGraphicsDisplayImplINS_11OledDisplayINS_12ST7565DriverILj128ELj64E
 1931              		.align	1
 1932              		.p2align 2,,3
 1933              		.syntax unified
 1934              		.thumb
 1935              		.thumb_func
 1937              	_ZN5daisy25OneBitGraphicsDisplayImplINS_11OledDisplayINS_12ST7565DriverILj128ELj64ENS_24SSD130x4Wir
 1938              	.LVL107:
 1939              	.LFB17108:
 176:../VCOM-G1/GuitarPedal/libDaisy/src/hid/disp/display.h **** 
 177:../VCOM-G1/GuitarPedal/libDaisy/src/hid/disp/display.h ****     /** 
 178:../VCOM-G1/GuitarPedal/libDaisy/src/hid/disp/display.h ****     Writes the current display buffer to the OLED device using SPI or I2C depending on 
 179:../VCOM-G1/GuitarPedal/libDaisy/src/hid/disp/display.h ****     how the object was initialized.
 180:../VCOM-G1/GuitarPedal/libDaisy/src/hid/disp/display.h ****     */
 181:../VCOM-G1/GuitarPedal/libDaisy/src/hid/disp/display.h ****     virtual void Update() = 0;
 182:../VCOM-G1/GuitarPedal/libDaisy/src/hid/disp/display.h **** 
 183:../VCOM-G1/GuitarPedal/libDaisy/src/hid/disp/display.h ****     /** 
 184:../VCOM-G1/GuitarPedal/libDaisy/src/hid/disp/display.h ****     Returns true if the Update has finished, used for chained DMA transfers
 185:../VCOM-G1/GuitarPedal/libDaisy/src/hid/disp/display.h ****     */
 186:../VCOM-G1/GuitarPedal/libDaisy/src/hid/disp/display.h ****     virtual bool UpdateFinished() = 0;
 187:../VCOM-G1/GuitarPedal/libDaisy/src/hid/disp/display.h **** 
 188:../VCOM-G1/GuitarPedal/libDaisy/src/hid/disp/display.h ****   protected:
 189:../VCOM-G1/GuitarPedal/libDaisy/src/hid/disp/display.h ****     uint16_t currentX_;
 190:../VCOM-G1/GuitarPedal/libDaisy/src/hid/disp/display.h ****     uint16_t currentY_;
 191:../VCOM-G1/GuitarPedal/libDaisy/src/hid/disp/display.h **** };
 192:../VCOM-G1/GuitarPedal/libDaisy/src/hid/disp/display.h **** 
 193:../VCOM-G1/GuitarPedal/libDaisy/src/hid/disp/display.h **** /** This class is intended as a intermediary class for your actual implementation of the OneBitGrap
 194:../VCOM-G1/GuitarPedal/libDaisy/src/hid/disp/display.h ****  *  interface. It uses the CRTP design pattern where the template argument is the child class. It p
 195:../VCOM-G1/GuitarPedal/libDaisy/src/hid/disp/display.h ****  *  implementations for most of the functions, except DrawPixel(), Update() and Fill(), which you'l
 196:../VCOM-G1/GuitarPedal/libDaisy/src/hid/disp/display.h ****  *  to provide in your child class.
 197:../VCOM-G1/GuitarPedal/libDaisy/src/hid/disp/display.h ****  *  The main goal of this class is to provide common drawing functions without relying on massive a
 198:../VCOM-G1/GuitarPedal/libDaisy/src/hid/disp/display.h ****  *  virtual function calls that would result in a performance loss. To achieve this, any drawing fu
 199:../VCOM-G1/GuitarPedal/libDaisy/src/hid/disp/display.h ****  *  is implemented here and internally calls other drawing functions (e.g. DrawRect() which interna
 200:../VCOM-G1/GuitarPedal/libDaisy/src/hid/disp/display.h ****  *  DrawPixel() and DrawLine()) makes these calls via the qualified name of these functions to expl
 201:../VCOM-G1/GuitarPedal/libDaisy/src/hid/disp/display.h ****  *  suppress the virtual dispatch mechanism like this:
 202:../VCOM-G1/GuitarPedal/libDaisy/src/hid/disp/display.h ****  * 
 203:../VCOM-G1/GuitarPedal/libDaisy/src/hid/disp/display.h ****  *      ChildType::DrawPixel(...); // no virtual function call; direct call into the child class fu
 204:../VCOM-G1/GuitarPedal/libDaisy/src/hid/disp/display.h ****  *  
 205:../VCOM-G1/GuitarPedal/libDaisy/src/hid/disp/display.h ****  *  To create a custom OneBitGraphicsDisplay implementation, you can 
 206:../VCOM-G1/GuitarPedal/libDaisy/src/hid/disp/display.h ****  *  A) inherit from OneBitGraphicsDisplay directly and provide all the drawing functions yourself
 207:../VCOM-G1/GuitarPedal/libDaisy/src/hid/disp/display.h ****  *  B) Inherit from OneBitGraphicsDisplayImpl and only provide DrawPixel(), Fill() and Update()
 208:../VCOM-G1/GuitarPedal/libDaisy/src/hid/disp/display.h ****  *     like this:
 209:../VCOM-G1/GuitarPedal/libDaisy/src/hid/disp/display.h ****  *  
 210:../VCOM-G1/GuitarPedal/libDaisy/src/hid/disp/display.h ****  *      class MyDisplayClass : public OneBitGraphicsDisplayImpl<MyDisplayClass> 
 211:../VCOM-G1/GuitarPedal/libDaisy/src/hid/disp/display.h ****  *      {
